(lp0
(dp1
I0
(lp2
F-0.16604299509002593
aF-0.08513503890915006
aF-0.1956987124354945
aF-0.03936698510064963
aF-0.167376731217895
aF-0.04934824627417644
aF-0.022778587480569247
aF-0.09758951095721377
aF0.05673907285939273
aF-0.10170763450598744
aF-0.03722025657601122
aF-0.0699602628095179
aF0.0011361318513995668
aF-0.04804586357267616
aF0.008197889634392948
aF-0.025069343058281082
aF0.0036479638378857184
aF-0.028755729889766928
aF0.014707624136001506
aF-0.028178161244855872
aF0.010855148719037696
aF-0.018708124058492186
aF0.01750477099700045
aF-0.07992308806499096
aF0.13307123572632684
aF-0.02154763246494572
aF0.01573976483483341
aF-0.00889257778837003
aF0.02385093682437586
aF-0.01201351649698143
aF0.034653817584364165
aF0.000985846271652923
aF0.02396599158118919
aF0.01946769963150851
aF0.049155683187369265
aF0.006343687520163698
aF0.0744341852058567
aF0.0635505464384721
aF0.1029695640472757
aF-0.0542624203306761
aF0.09343607616088627
aF0.02137531155411939
aF0.0482230382979062
aF0.1472518126935641
aF0.046728834435927076
aF0.18438843657089962
aF0.09410472222417518
aF0.1310239944439288
aF0.07062079430060164
aF-0.0028521897059929366
aF-0.0002216394244491016
aF-0.03230670402126103
aF-0.24774046280704098
aF0.0008181714063822198
aF9.405694048264331e-06
aF0.2825392800357263
asI1
(lp3
F-0.1689125380326264
aF-0.08735056629556964
aF-0.19652207710873484
aF-0.04335371162375786
aF-0.1676131514870806
aF-0.04807573904706874
aF-0.023126265160617943
aF-0.0923611346617747
aF0.05758294506049263
aF-0.10181061152279541
aF-0.035392606715337026
aF-0.06780067962475435
aF-0.0017998404399703794
aF-0.0438054391103133
aF0.009267014110535153
aF-0.018868158149084942
aF0.001318545387712531
aF-0.03418529691002307
aF0.015145774433137674
aF-0.021247776552559265
aF0.007951059423105134
aF-0.01842480835426266
aF0.010640105796009169
aF-0.07623356331340701
aF0.12945804376851974
aF-0.0200312131722435
aF0.013335284116359206
aF-0.01116907521260721
aF0.026504586163174356
aF-0.0152212260644616
aF0.03535297843024487
aF-0.001710797491525234
aF0.02319245415084722
aF0.01579180117032997
aF0.04460004450323253
aF0.006593456200794126
aF0.06935352447826763
aF0.06097134243187134
aF0.10542237891004586
aF-0.05528636250500083
aF0.08938294514450475
aF0.021937084145914103
aF0.052713222613235064
aF0.14887574444591448
aF0.048843507487683666
aF0.18850039935836593
aF0.09166469856705196
aF0.13453369798077452
aF0.06537009315114976
aF-0.003219009055439038
aF-0.004310299230757285
aF-0.03644948308703356
aF-0.25035500688377604
aF0.0027438469794125392
aF-0.00013805022462752965
aF0.28450562982706984
asI2
(lp4
F-0.16693851817067334
aF-0.085542258572875
aF-0.1948173086974411
aF-0.0404687252515244
aF-0.16370322018091987
aF-0.04899665211392585
aF-0.02432833619839216
aF-0.09609721225165928
aF0.05420338375033131
aF-0.10174180405408798
aF-0.03824704951165268
aF-0.07199108680003068
aF0.0008420894362368066
aF-0.04933096916972832
aF0.01155861275663982
aF-0.025456345929995343
aF-0.0015037688927970936
aF-0.03007513168486288
aF0.011251314163208025
aF-0.024401841160482045
aF0.011444292045251441
aF-0.020034297091309206
aF0.01123605065681786
aF-0.07869701823112688
aF0.13509255441973475
aF-0.015854440061631565
aF0.019459350284247234
aF-0.012066788053971605
aF0.019118837943976667
aF-0.007890043403746844
aF0.029504950223756952
aF-0.00562973919651299
aF0.021620466590547324
aF0.021075953964481975
aF0.053294308123905856
aF-0.0011259771018891742
aF0.07158102821662657
aF0.06104725716026105
aF0.10656492605157952
aF-0.051851128217412314
aF0.09466284798728566
aF0.02390085806829418
aF0.049525336666345544
aF0.1493980043370068
aF0.04748436620026353
aF0.18342888543579378
aF0.09899860254886617
aF0.131821502717996
aF0.06697207403555513
aF-0.0035711728002544157
aF-0.00223164214431931
aF-0.03518861529259654
aF-0.24808581820222658
aF0.004099190300783245
aF0.0003457947396204857
aF0.2847227981340136
asI3
(lp5
F-0.16686217618746452
aF-0.08103344342025427
aF-0.197064210365568
aF-0.037251872675379515
aF-0.1675086650104104
aF-0.04322213871019378
aF-0.019687595503960403
aF-0.09658654212027834
aF0.05948397198340555
aF-0.10643126596079448
aF-0.03521550932802851
aF-0.07348504622553052
aF-0.0027202420947331244
aF-0.047702835920138624
aF0.0050953328491666885
aF-0.017878839448601944
aF-0.003862760257738797
aF-0.035866103901609776
aF0.010683292059417069
aF-0.027808829144838218
aF0.007871486591955409
aF-0.022687163440014518
aF0.012071148415333006
aF-0.07869387823188713
aF0.1340747743416055
aF-0.014214893082879486
aF0.012298135440370795
aF-0.005231036650519801
aF0.027119811722238638
aF-0.01540607428547389
aF0.031866939857039346
aF-0.006146125403930557
aF0.024221305071087294
aF0.01682140804270646
aF0.05081240193753272
aF-0.00039725733101845015
aF0.06798904544416041
aF0.06301587494846045
aF0.10578047252959648
aF-0.0557852149006757
aF0.09198591107872044
aF0.025290856324684315
aF0.051991724644870445
aF0.15381386856489637
aF0.043400169415863554
aF0.1831012797160468
aF0.09420760860324906
aF0.13411429638208996
aF0.06663806724046159
aF-0.0045205313906341955
aF-0.004874932569196811
aF-0.032298794515133185
aF-0.25086822824446764
aF-0.003857879621495941
aF-0.00025352289970653416
aF0.2864256077887616
asI4
(lp6
F-0.16761579027004278
aF-0.08386356298675945
aF-0.19655457751698002
aF-0.04237006780649376
aF-0.1633937646097957
aF-0.044414599186555014
aF-0.0248518915165305
aF-0.09296931051703138
aF0.05052489717928809
aF-0.10369041650512782
aF-0.037802548528054286
aF-0.07264372513432192
aF-0.001984778275740944
aF-0.04506966190729045
aF0.006475292264759584
aF-0.019742834737571064
aF-0.0018551966258631772
aF-0.03317465583511528
aF0.01424051227137191
aF-0.02722938928644924
aF0.009114975955235128
aF-0.017221865600496274
aF0.017717849969367074
aF-0.07928033637078966
aF0.13626489150360807
aF-0.015393846835883126
aF0.014340502596823387
aF-0.007138019825016135
aF0.02265364632372252
aF-0.00961114083838935
aF0.031714851641287865
aF0.0010420302728378589
aF0.017140311413423943
aF0.01889889348214648
aF0.04901073078452467
aF-0.0019026040243548081
aF0.07587743376647169
aF0.06067505559694093
aF0.10091500472849184
aF-0.053251431944107634
aF0.09204300249310156
aF0.021368137265780705
aF0.05688469581317809
aF0.15064676830410592
aF0.04700717858606607
aF0.1843384824091314
aF0.09574423017554085
aF0.1346888260901485
aF0.06403944023643805
aF0.0005104984100482581
aF-0.0009101466274185541
aF-0.032913907018827813
aF-0.24982614487515706
aF0.004960689231860933
aF-0.0018513976235755474
aF0.2823196030362848
asI5
(lp7
F-0.16543315667930672
aF-0.08458108651693759
aF-0.19549046859035912
aF-0.03682734778030155
aF-0.16473429210409307
aF-0.04177176112627578
aF-0.020502223538295096
aF-0.09354404601082382
aF0.05814004758559797
aF-0.10376058529652671
aF-0.03426052246771851
aF-0.07127420324545553
aF-0.0027013525949016533
aF-0.04698192499182109
aF0.009413085230587433
aF-0.025551321522093374
aF-0.0021674479074297987
aF-0.03589310730298937
aF0.009670562228251474
aF-0.022748699011134306
aF0.008697499097439693
aF-0.017311111381736237
aF0.008663806496737982
aF-0.07763179760991275
aF0.13427182832797033
aF-0.013488929639414766
aF0.018113353257842232
aF-0.006017940144572476
aF0.02066877443705675
aF-0.012872954410854965
aF0.032089487302142984
aF-0.0006464208260874791
aF0.017229913194297508
aF0.015441391725159227
aF0.04436052335388221
aF-0.0025378429367445554
aF0.06708743054977742
aF0.06135763922591135
aF0.09839451250593405
aF-0.0557554587513101
aF0.08630247408910034
aF0.019236909858593637
aF0.048735580597649986
aF0.1460392944256575
aF0.049219243961103845
aF0.18352884834125643
aF0.08966615540936473
aF0.13156675715551
aF0.07058914696933503
aF0.0005045732843270813
aF-0.00021910327534907655
aF-0.03307125633330628
aF-0.248509043465142
aF0.003115570638070733
aF-0.0011261319836200104
aF0.28578612073440024
asI6
(lp8
F-0.1693379741682318
aF-0.08338190592967595
aF-0.19817400187559095
aF-0.03859537171797539
aF-0.1679627897596807
aF-0.043968383144546735
aF-0.022227321188903363
aF-0.09400071374089859
aF0.051899674150651255
aF-0.10069932057338336
aF-0.03339881776902846
aF-0.0677693071168824
aF0.001542978930037013
aF-0.048248138770517326
aF0.011278010093845634
aF-0.022328871324047823
aF-0.00259551988213542
aF-0.02937720402480133
aF0.01271198106177548
aF-0.02590633985220117
aF0.0032999165035052626
aF-0.01952122998405265
aF0.01169738335946479
aF-0.07987365656685763
aF0.13311115116976915
aF-0.021568896794131893
aF0.015149713571228969
aF-0.009917087741821349
aF0.027057557688843784
aF-0.007486070536397943
aF0.038618037156130734
aF0.0031423383617447385
aF0.017155972929469646
aF0.020861719708307688
aF0.0455263263498918
aF0.004080302493616736
aF0.07090717809334882
aF0.056952046425386496
aF0.10362984548981759
aF-0.058403200335554545
aF0.08546057391331913
aF0.022725772723508297
aF0.051634641011946966
aF0.15362024369788166
aF0.045738658161348394
aF0.18717017895769306
aF0.0960879040368559
aF0.13524496934765698
aF0.07063619736597908
aF-0.001188820305853757
aF0.002998751833440037
aF-0.036494522736704484
aF-0.25115600237305263
aF0.0010380585008683545
aF-0.0021866236144001145
aF0.28646007672046014
asI7
(lp9
F-0.1648988106479661
aF-0.08351696715224502
aF-0.19583058497417966
aF-0.043118570118960434
aF-0.1614158017688462
aF-0.045415280470672406
aF-0.02081284733639227
aF-0.09134388958538286
aF0.05648037220856501
aF-0.10646641913504411
aF-0.03825479897803561
aF-0.0729207617017547
aF0.004264922305547891
aF-0.045786131948889655
aF0.013092871149666669
aF-0.024566504312953107
aF-0.0007318859560810512
aF-0.03134757951099418
aF0.010707800970529978
aF-0.022421143076154035
aF0.01139965863844862
aF-0.019882665515690064
aF0.015084844885090907
aF-0.07528490897033038
aF0.1276826592146381
aF-0.018517316814559145
aF0.012696293789579639
aF-0.007600423633497605
aF0.021610766131896723
aF-0.012874054936296807
aF0.035772833066773535
aF-0.006352863124642678
aF0.01695680394932996
aF0.020974823807812938
aF0.04607638551509326
aF-0.002584416386762302
aF0.07574833006023893
aF0.05993118416047178
aF0.09992809115260204
aF-0.050760768080681994
aF0.08776933956791504
aF0.01585708522696041
aF0.0464037808587924
aF0.14693910327088744
aF0.04658980540634061
aF0.18577662199351402
aF0.09046859200133613
aF0.1318903567271697
aF0.06437416198649173
aF0.0003595672599147636
aF0.0022647787919955536
aF-0.03776494133247632
aF-0.24896935556162791
aF-0.0007375218380244482
aF-0.0033544954788321786
aF0.285638045087633
asI8
(lp10
F-0.1678720687774055
aF-0.08601615428380065
aF-0.19479289589631105
aF-0.0406435964083457
aF-0.1651882727441848
aF-0.045322727418162255
aF-0.018639758191221337
aF-0.09709720782607004
aF0.05520024587394636
aF-0.10342270636672433
aF-0.03768678346189733
aF-0.06630364629368429
aF-0.003074414194266465
aF-0.049119879152733886
aF0.010533901750341952
aF-0.024801455218389556
aF0.004083550704599596
aF-0.031442631694247936
aF0.00848915897001484
aF-0.021230398119461
aF0.012011971449009312
aF-0.01545366410553987
aF0.017973938876017802
aF-0.08020470443998612
aF0.13096873772667716
aF-0.016680469009759658
aF0.019035422196930045
aF-0.012452860221053462
aF0.0225379183196769
aF-0.008221418343143657
aF0.029159624147536034
aF-0.0018143399331536918
aF0.01617441777243929
aF0.01693372865611191
aF0.053322021987534954
aF-0.0024248973015546264
aF0.06789742853318469
aF0.061034520615988075
aF0.10621233026139101
aF-0.05433610766882656
aF0.08773800351454784
aF0.020586353265413408
aF0.046591551259519304
aF0.14883215491541607
aF0.050597246474598095
aF0.18749786307037372
aF0.09934597146145657
aF0.13195985563926044
aF0.06709536954497876
aF0.0031188126845702
aF-0.0006924507067739769
aF-0.03254079595682371
aF-0.24901771476686493
aF0.0015822373088550405
aF-0.004237460374336798
aF0.28747531437525564
asI9
(lp11
F-0.1666194192326127
aF-0.08763034759565759
aF-0.195394523509136
aF-0.03706937228919332
aF-0.16318458067303546
aF-0.04283043754654379
aF-0.021314822767341958
aF-0.09008941423110535
aF0.05220157262180684
aF-0.10266738375461021
aF-0.033431529257888566
aF-0.06616801526338092
aF-0.002691485363091368
aF-0.042380684511593145
aF0.006315997033858401
aF-0.02685757425638814
aF-0.004816087976873008
aF-0.029452343831358918
aF0.01403420865092805
aF-0.025667051071928033
aF0.003538768747043393
aF-0.020099518384628246
aF0.011335342302183441
aF-0.07682808001839699
aF0.1327493787406552
aF-0.021556711767306103
aF0.012312155046130235
aF-0.006004354262618412
aF0.02097301300083536
aF-0.009836563791896492
aF0.029257083290462806
aF0.00045177792854364805
aF0.023935167870110734
aF0.013601178025115464
aF0.051598527554903316
aF0.0057356837517117875
aF0.07066808482653361
aF0.05789353965411214
aF0.0993092849883899
aF-0.05747219889052794
aF0.0885923042157697
aF0.020229023596579136
aF0.04954644645165864
aF0.15406877289220727
aF0.042811425361364494
aF0.18299583721192245
aF0.0962249990673805
aF0.1311396448604557
aF0.06410765533649797
aF0.0015190813496609667
aF-0.0008372719436939815
aF-0.03925498598848538
aF-0.2484180871341127
aF-0.0036835210680446246
aF0.002643807802022052
aF0.2863087732394787
asI10
(lp12
F-0.16577054371850003
aF-0.08526725484155949
aF-0.19499423584138262
aF-0.042134214185058416
aF-0.16331244524052976
aF-0.04923419788176053
aF-0.017297778270696288
aF-0.09091625280566831
aF0.052909908991817606
aF-0.10275426884400975
aF-0.03688381532566693
aF-0.06575936843015538
aF-0.0028055588110332524
aF-0.04984757401317942
aF0.00924053267129094
aF-0.023484413469018865
aF-0.004470157952055939
aF-0.027887974685113642
aF0.009930228851132596
aF-0.022495998094802936
aF0.003938519990435183
aF-0.021184933016092793
aF0.009964145595260336
aF-0.07981480680099973
aF0.13552046269134707
aF-0.018823278689613827
aF0.019007780599288693
aF-0.011336397401053055
aF0.01903504626704344
aF-0.008480416713295368
aF0.0359537856788198
aF-0.003803547810194713
aF0.016087020130935725
aF0.016835776973138896
aF0.04687731061511066
aF-0.0008518209848827591
aF0.07349538891861998
aF0.06022391195429129
aF0.09906722631062412
aF-0.05485096299591298
aF0.08744587927830029
aF0.015659059811708592
aF0.05253341189475298
aF0.1507639063836923
aF0.046463890783508585
aF0.18411302197708423
aF0.09778290943095522
aF0.13081704569936492
aF0.06237144934500296
aF-0.0048114242466666245
aF0.0004890697103430107
aF-0.03055367798758408
aF-0.2479645279179289
aF0.0007916021533628913
aF0.0035328429100706152
aF0.2851976207461867
asI11
(lp13
F-0.16637028944310325
aF-0.08565857587408067
aF-0.19690123931026954
aF-0.036989828720012045
aF-0.1635378196622582
aF-0.04740848906393066
aF-0.01943191500842702
aF-0.09376872407938572
aF0.055057771232207654
aF-0.10603679441457654
aF-0.03443756571987054
aF-0.07084735409233789
aF0.005137949246246162
aF-0.04644953027537488
aF0.012386910892085636
aF-0.024311255338938163
aF-0.0015208295448653388
aF-0.03510832837073335
aF0.013798692417161267
aF-0.023959220514498305
aF0.006672397975231498
aF-0.01640010566406528
aF0.011832826408104248
aF-0.07659551783831231
aF0.12850646269375213
aF-0.015173343160260956
aF0.01303620310021699
aF-0.009491838602904697
aF0.021960928367945724
aF-0.013488041678075711
aF0.03356879372264303
aF0.00276375697456904
aF0.025248188917387646
aF0.013565023319541727
aF0.04799633913142691
aF0.002146873668858222
aF0.07059344877923522
aF0.057349424578532565
aF0.10297767638965136
aF-0.051425210409259806
aF0.0861856293490398
aF0.01863825940215015
aF0.054778578065712714
aF0.15276494980968822
aF0.041784897648513675
aF0.1860145612170818
aF0.09438953319393088
aF0.1329204172287484
aF0.06238423000368422
aF0.003529510949526739
aF0.0023857750872434227
aF-0.037860829165293486
aF-0.24997408802364365
aF0.0026479907880973723
aF0.00034116853694165486
aF0.28551949736017096
asI12
(lp14
F-0.1659259446315731
aF-0.07863767601871591
aF-0.19786620959583073
aF-0.043605604398669465
aF-0.16705039611096023
aF-0.04883247515787556
aF-0.02460209386111255
aF-0.09145551638939958
aF0.05311738343256934
aF-0.10235604291918067
aF-0.03810761124238044
aF-0.07353505748599064
aF0.005866764455106929
aF-0.04801897538987403
aF0.011553594503938069
aF-0.022933493554530292
aF-0.0007047137637082427
aF-0.03335026023369835
aF0.010662378547034314
aF-0.021612387891950753
aF0.0046504487975075415
aF-0.01862423688677679
aF0.012218068377486612
aF-0.07739697745876045
aF0.1349128615637635
aF-0.018006511371453066
aF0.017464000304063212
aF-0.011562298785553165
aF0.02556763656623215
aF-0.01550680366529778
aF0.033248415379851896
aF-0.0021620032461587067
aF0.02490679919884202
aF0.015178622214028725
aF0.044557621492461154
aF0.005386675733853182
aF0.06891126265489866
aF0.0602904048564513
aF0.10458028165800133
aF-0.05613588455148013
aF0.08562600821786064
aF0.016519365302521807
aF0.05045805052786145
aF0.1515368575545014
aF0.04626318299179562
aF0.18785756843346058
aF0.09443001627965983
aF0.1330564194857629
aF0.06962090571943573
aF-0.0017112107920365866
aF-0.0027225314755826655
aF-0.03228217280418401
aF-0.2508302670327332
aF0.003960081326141422
aF0.0008541326581891812
aF0.2863548625106262
asI13
(lp15
F-0.1692230741129186
aF-0.08858837352830354
aF-0.19683440246512246
aF-0.03814114256558099
aF-0.1650270469234465
aF-0.04287049951719257
aF-0.021250734468173445
aF-0.09297808148813523
aF0.05584956049065679
aF-0.10320207380433977
aF-0.03929424476114271
aF-0.06612327367938038
aF0.0030426658355848634
aF-0.042734425182823055
aF0.01080142393247181
aF-0.02067263837463023
aF0.004443160439738692
aF-0.028326016171025908
aF0.014608507360434866
aF-0.02509736900675898
aF0.008207625557455332
aF-0.019920657662486126
aF0.013502523773556553
aF-0.07844010940215061
aF0.12740211535825507
aF-0.017722436722716953
aF0.014157784563651287
aF-0.006098650231164715
aF0.023776488412217127
aF-0.013062814276811297
aF0.037658373164663306
aF0.00016294445191875794
aF0.01630265259447152
aF0.01928616441341396
aF0.046387397472476014
aF0.00032158755411720673
aF0.07189799573187974
aF0.061167392610372025
aF0.0975271580978195
aF-0.05567890223627541
aF0.09010209988296734
aF0.023301247616650977
aF0.048130040591960674
aF0.15160313339393688
aF0.04720235848787332
aF0.18684629282719847
aF0.09227008579422709
aF0.13330973981158836
aF0.06925088236259483
aF-0.004452700217239816
aF-0.004719587901817331
aF-0.03067427108178561
aF-0.2500782967477351
aF-0.004067918575490579
aF-0.003165262880585245
aF0.2866491770352509
asI14
(lp16
F-0.16338878230366913
aF-0.08094781946294263
aF-0.1937348300744426
aF-0.04064983722368463
aF-0.16331899741487063
aF-0.04538319072685989
aF-0.02297840597958809
aF-0.09651108303336839
aF0.05145966938019873
aF-0.10568619759370985
aF-0.03432382781224891
aF-0.06997206605333695
aF0.006276327841430169
aF-0.04465574367893194
aF0.011623988538798828
aF-0.023438786968122512
aF0.0018619076058007955
aF-0.035256612250850375
aF0.013686294927251399
aF-0.029816932966813682
aF0.003148941325657244
aF-0.01878787693823895
aF0.010130824150443678
aF-0.08044182490966957
aF0.13063239312073513
aF-0.019127793396255283
aF0.01998404907926952
aF-0.010375493857871801
aF0.0193359038193708
aF-0.010669911842434723
aF0.038600671982584336
aF-0.0041787322837853426
aF0.017636912516222084
aF0.013077831129264209
aF0.043582605835010696
aF0.001993556093440367
aF0.06656526567360413
aF0.05915137634762234
aF0.09823965615411172
aF-0.051483293451463345
aF0.08736392938209861
aF0.020212550077899714
aF0.05077728925858002
aF0.15055985250893378
aF0.04268666134794161
aF0.18224711899528873
aF0.09835232252688933
aF0.13014528041854392
aF0.06849699793656623
aF0.0040032572334978336
aF0.003919561298567621
aF-0.03048139728634766
aF-0.24742446728486067
aF0.004623800481459925
aF-0.004973348407077916
aF0.2838183027542785
asI15
(lp17
F-0.16476371946020568
aF-0.08045244674009358
aF-0.1970502703900599
aF-0.04327056973295852
aF-0.16583249806279293
aF-0.0480278138382658
aF-0.024626970254849414
aF-0.09540217049218201
aF0.05449426876897508
aF-0.10257683616138115
aF-0.03393305637073747
aF-0.0731974011619481
aF0.005690668365228782
aF-0.047277065745383075
aF0.012325093849860445
aF-0.02242190342337057
aF-0.001979294851186423
aF-0.030704416352089623
aF0.01136997948896483
aF-0.030345325900137395
aF0.003288256866391458
aF-0.015086827780489708
aF0.014172188078556984
aF-0.07607888201105278
aF0.12682748144972913
aF-0.018092906040348047
aF0.013995524947459011
aF-0.005353995920538132
aF0.024854739419142697
aF-0.014598329380608602
aF0.03317384251000375
aF-0.0014659202154428826
aF0.0210193643765781
aF0.01567656482924902
aF0.04975407785440767
aF0.0028034879826147534
aF0.07399906844061452
aF0.06275166396550164
aF0.10465150134176991
aF-0.05235649887444247
aF0.09286102580390326
aF0.01617160558647875
aF0.048462432225592114
aF0.15363390069382846
aF0.04795082671799184
aF0.18384753086612454
aF0.09757064677280791
aF0.13129339571767623
aF0.06556179244086195
aF-0.002940664147086863
aF0.00029613416563003874
aF-0.035214955069491786
aF-0.24871754891048928
aF-0.003608250454522724
aF0.004073560818328492
aF0.28569378918176114
asI16
(lp18
F-0.1668440628838115
aF-0.08410058934163282
aF-0.1965182640854135
aF-0.043865350581811076
aF-0.16550422912978796
aF-0.04445933515885279
aF-0.024971208028915684
aF-0.09318642877356872
aF0.05245312044524084
aF-0.10833977450015833
aF-0.03459192677483724
aF-0.06568457855313252
aF0.0049951735318954455
aF-0.04817351643744403
aF0.007631038429582524
aF-0.025644571204798263
aF-0.004957217564886037
aF-0.03614376685971901
aF0.01393770578797432
aF-0.029590011719654048
aF0.008110748004212824
aF-0.019965085681714814
aF0.011430288569064391
aF-0.08005264089623408
aF0.13358562358738524
aF-0.016021700092594755
aF0.017022361300607747
aF-0.00978308396211068
aF0.025126190603172466
aF-0.006388200225907242
aF0.029313228393933497
aF0.0013374800037414898
aF0.0165207710747572
aF0.0168747034847954
aF0.0471365270814843
aF0.0004049741101414149
aF0.06771308865814286
aF0.06335457394877393
aF0.10621333668687687
aF-0.0587308556004453
aF0.08805948646439063
aF0.01777238338082629
aF0.053801521189572835
aF0.1487656176107208
aF0.04990898451663417
aF0.1881376401565505
aF0.0943164055667883
aF0.13408397942682723
aF0.06885248897517775
aF-0.0028771141054017915
aF0.0037598674357635295
aF-0.03503783783485278
aF-0.25128636517346126
aF0.002386505210891284
aF0.00446222316307041
aF0.28715470374176716
asI17
(lp19
F-0.16640518475516325
aF-0.08116346145043946
aF-0.19670753482649211
aF-0.04010772897321894
aF-0.16642151127957316
aF-0.047105920136008325
aF-0.023853707512929933
aF-0.09651094543733149
aF0.058785943120447305
aF-0.1015667519746755
aF-0.036620904628769935
aF-0.06717799587161041
aF0.0040143281369279795
aF-0.04352299845497531
aF0.005697626428746924
aF-0.023526306699223714
aF-0.00386150624085764
aF-0.03577257627258727
aF0.015422553997385183
aF-0.02293439893086112
aF0.00447957898109584
aF-0.019307380289322724
aF0.011734333416820373
aF-0.07484234837417364
aF0.12968652449861792
aF-0.020218124601429042
aF0.013622491397157507
aF-0.006738488941523577
aF0.025620803982745043
aF-0.010592179816182925
aF0.03305947434732767
aF0.00030466068169203176
aF0.02452226045414537
aF0.013323876495913146
aF0.05228713952056665
aF0.0035531107530483593
aF0.06745916163651497
aF0.05799276290858985
aF0.10412188255163723
aF-0.05039565984036484
aF0.08835749136711185
aF0.02220061942276893
aF0.052304575737784915
aF0.15331051070700785
aF0.05198673630637881
aF0.18424403513543836
aF0.09021224477356261
aF0.13400556415779397
aF0.0678927202828272
aF0.0007818687779662144
aF-0.0005736751254566279
aF-0.032499111805079604
aF-0.2507813293933759
aF0.001047926171743833
aF-0.00038597996715421256
aF0.2870255426850369
asI18
(lp20
F-0.16797790696066436
aF-0.08577403344519426
aF-0.19552236149665864
aF-0.04098960487494793
aF-0.16296293284671629
aF-0.04448816875324212
aF-0.018039568657570552
aF-0.09174467309473851
aF0.051147545997868464
aF-0.10109415625988936
aF-0.03744863383156196
aF-0.06630647252400135
aF0.002773519725376634
aF-0.04877931663374292
aF0.01315043091351819
aF-0.018993127236931168
aF-0.002776684326049155
aF-0.03268987471331764
aF0.014404196575877473
aF-0.02618593300946389
aF0.008681309199191963
aF-0.016171153910886367
aF0.008989450013765318
aF-0.08180285678502308
aF0.1323207108048335
aF-0.01713038635867107
aF0.013302618806970515
aF-0.012691601028606506
aF0.02069393294391679
aF-0.015224052373790074
aF0.033212598708586796
aF-0.0013760045573196166
aF0.02123798762470796
aF0.016973907726525815
aF0.051724598608177644
aF-0.0011100244020833452
aF0.07388935114353806
aF0.058388775246568415
aF0.09781143733036156
aF-0.05402525815779351
aF0.09232585492293194
aF0.022696456898553107
aF0.05073198695390978
aF0.14920841635887216
aF0.05107877345125332
aF0.18515327520961977
aF0.09121670722108748
aF0.13528104056521162
aF0.062435902992436954
aF0.003681010907420569
aF-0.0010450262191637925
aF-0.03495135300147303
aF-0.2490655975107654
aF0.0020583259066311844
aF0.003361925481516841
aF0.2818735719531949
asI19
(lp21
F-0.1677923686254043
aF-0.08190501253260263
aF-0.19682832539085812
aF-0.04222162763275189
aF-0.1617704474964437
aF-0.0434307899921422
aF-0.022489909322026363
aF-0.09192187036527856
aF0.05488709656832346
aF-0.1056098420655715
aF-0.03770010933393405
aF-0.07388342492665508
aF-0.0025314484034278306
aF-0.04362085938910581
aF0.009662292233781802
aF-0.02015505147954796
aF0.004488919756292438
aF-0.02803734023392863
aF0.011314000695132463
aF-0.024747528516708632
aF0.009606653522784791
aF-0.021065191935975204
aF0.015783740196554968
aF-0.08054963244327767
aF0.13106760402976694
aF-0.01840382590594122
aF0.020673478017904548
aF-0.01229706332415648
aF0.02326734901020807
aF-0.01311809354647678
aF0.03350058688283115
aF0.002137412213145754
aF0.02202753879734735
aF0.013985962409218693
aF0.0458041196042096
aF0.003668543062561294
aF0.07320863114622388
aF0.059761444409566204
aF0.0978745469825857
aF-0.05394420730830037
aF0.08786147211011161
aF0.023442256668982853
aF0.05541928781253904
aF0.15002752599787608
aF0.043873216113364956
aF0.18403403618612707
aF0.09184986303688829
aF0.13462478647073634
aF0.07031950033603962
aF-5.583546176700569e-05
aF-0.004403363347588739
aF-0.0313395936442657
aF-0.2497557240834175
aF0.004483708253217056
aF0.0017353699582118088
aF0.2873388314990978
asI20
(lp22
F-0.16759198130286887
aF-0.08884094295543837
aF-0.19601064007037106
aF-0.04212273720875201
aF-0.16730692520753768
aF-0.04492985692009646
aF-0.01947447216650012
aF-0.09417555943366819
aF0.05921824717443751
aF-0.10648888527394579
aF-0.03860691759046963
aF-0.06961478156407591
aF0.003127476523134309
aF-0.04643703956130374
aF0.0071561647704757436
aF-0.023276395992225543
aF0.004156282796909409
aF-0.03433358037546536
aF0.01604873852205459
aF-0.022591012104636116
aF0.011078464542114254
aF-0.01574212221822555
aF0.016973132508317987
aF-0.07629311934932353
aF0.1287348373643944
aF-0.013755820142298925
aF0.014765988563551496
aF-0.011901766310599393
aF0.022410257357389517
aF-0.014151397529971348
aF0.032089680948458876
aF-0.0028289622785946035
aF0.01777199297607009
aF0.019686404187506907
aF0.045524220700911736
aF0.0015137966029530121
aF0.0754865026113601
aF0.06335354529584174
aF0.10218831685742766
aF-0.05180279749495073
aF0.09481215970674794
aF0.024396923033403854
aF0.052599599559767944
aF0.14661156992730223
aF0.04746976058460423
aF0.18388573089802743
aF0.09808148806302176
aF0.13352299353417904
aF0.06966089283700441
aF-0.001409998848915062
aF-0.0026494297029063902
aF-0.03573490857254714
aF-0.2502748186873513
aF-0.0029072756166301146
aF-0.0010890085508492799
aF0.28764667228000707
asI21
(lp23
F-0.16686559318593594
aF-0.08309945808457322
aF-0.19690646043811683
aF-0.043756269003451594
aF-0.16325972358948967
aF-0.04729904782891456
aF-0.01875818756686379
aF-0.09641192547181114
aF0.055119088728456035
aF-0.10193923519147817
aF-0.037674560832935355
aF-0.06578420837039081
aF-0.0016976397511916511
aF-0.04737381502500673
aF0.01075121478204108
aF-0.023100991254873998
aF-0.0034580324517969737
aF-0.030342386236527807
aF0.007902635443228544
aF-0.024114335278647078
aF0.01036996690144997
aF-0.016535474810610823
aF0.010883973623105052
aF-0.07995648037641931
aF0.13424451613760655
aF-0.012531925058654995
aF0.018512138464946915
aF-0.009906686263320235
aF0.020411410870087455
aF-0.011141165640569018
aF0.03489786083505416
aF-0.005501204761238756
aF0.02148422610114255
aF0.022292161917774465
aF0.04739727784212508
aF0.0025390281585683607
aF0.07529422464714579
aF0.0639588991113865
aF0.1023086048762492
aF-0.05771195237536919
aF0.08644058614352035
aF0.01776998331407659
aF0.05083788237246924
aF0.15130301388023482
aF0.049434708400422016
aF0.18269696549201378
aF0.09637998975161476
aF0.13351694987042695
aF0.06610079622991695
aF-0.0036625320861615783
aF0.003270889173305956
aF-0.03682051028282617
aF-0.24826572899583504
aF0.001029578474254708
aF0.0044679983566300145
aF0.2844254408279687
asI22
(lp24
F-0.16575324742575423
aF-0.08178913656651259
aF-0.19641272602961649
aF-0.04045383689866909
aF-0.16254336401587077
aF-0.04454471819795986
aF-0.020498802798098466
aF-0.0919697133612655
aF0.057510221145211954
aF-0.10869164899867964
aF-0.03500335475605541
aF-0.06597029880408041
aF0.006128470063962212
aF-0.050314164184135354
aF0.010697569199396241
aF-0.020171603977645523
aF0.004000018870588105
aF-0.0368349832570543
aF0.014350450451027678
aF-0.028800063497929542
aF0.011232294503227193
aF-0.01874291337329769
aF0.011685997950481372
aF-0.08051653407512774
aF0.13151858658869614
aF-0.018694728796318994
aF0.01909216235647173
aF-0.004115017953227239
aF0.028095747819804867
aF-0.01592058197956774
aF0.0353733463602646
aF-0.003455119579411188
aF0.02353182199057448
aF0.015419584641743232
aF0.04358707447205262
aF0.0010652308672413006
aF0.07107002629757439
aF0.058422349258490436
aF0.10508470936680754
aF-0.05804289156300875
aF0.0912352379066307
aF0.020743128036852364
aF0.049736321976912724
aF0.1527290099795758
aF0.04941177329896559
aF0.18217217932985316
aF0.09006158309566169
aF0.1333343892502186
aF0.06903019166434787
aF-0.0036818099847088994
aF-0.0010791789507357428
aF-0.03487507906674152
aF-0.24938764767444146
aF0.003617650849353725
aF0.0042641750325262415
aF0.2858532974013696
asI23
(lp25
F-0.16655811696476638
aF-0.08027331423655559
aF-0.19570492885516236
aF-0.042783065866562955
aF-0.16515855062912657
aF-0.04567639131977779
aF-0.024935321607309182
aF-0.09588646494908053
aF0.05652664924269951
aF-0.10794669273605342
aF-0.0375484976814176
aF-0.06717369436495545
aF-0.0005270888089980283
aF-0.04474586588687176
aF0.006070416102120698
aF-0.021590862260325566
aF0.003931869173496421
aF-0.035011329593146144
aF0.015094021554148188
aF-0.030300302835380044
aF0.008829529475929099
aF-0.016843201175942252
aF0.00976381295841901
aF-0.075518920579213
aF0.13329792346092742
aF-0.017650729723830753
aF0.013923537081679718
aF-0.008605638361329132
aF0.01921490779573113
aF-0.01479276263237233
aF0.03574668385931143
aF0.002691564664890687
aF0.019131558233724557
aF0.0178947906963426
aF0.05167642222913446
aF0.001693317996092108
aF0.0665995785317186
aF0.060993028108826494
aF0.10101589304382365
aF-0.0523496533388562
aF0.0885834290037832
aF0.020842677637456716
aF0.0511163622775546
aF0.15291068205901323
aF0.04264665059028079
aF0.18622549970200986
aF0.09475303224037866
aF0.13430494442042168
aF0.06237466543219217
aF-0.004039619725191174
aF0.0017204226887267112
aF-0.03549933070572764
aF-0.25102255519149536
aF-0.0005555466723286486
aF-0.00014943413672581122
aF0.2864762750551416
asI24
(lp26
F-0.16653457721776363
aF-0.08154452129518225
aF-0.19618698779455668
aF-0.036720122007108155
aF-0.16424038520109707
aF-0.045779082709011786
aF-0.02466065568992156
aF-0.09733553549105951
aF0.058663726755992164
aF-0.10295257879066547
aF-0.03830365162425419
aF-0.07293259594932709
aF-0.002904036379049678
aF-0.05017798504782746
aF0.005553051469669428
aF-0.02158077833048556
aF0.0009840966286519676
aF-0.0303822145871362
aF0.011861579404410261
aF-0.022535535016603183
aF0.005699228426704961
aF-0.020824311276697025
aF0.01148897094103428
aF-0.07845404832262735
aF0.12823937931930648
aF-0.021336458056838994
aF0.012551566775016959
aF-0.00492231613289867
aF0.023652235342250444
aF-0.015679878855782238
aF0.0366986514926211
aF0.002747029695174672
aF0.017510366510894746
aF0.01971351358132769
aF0.044735531174460566
aF0.0006926765380717876
aF0.07129853304319121
aF0.06232557495995116
aF0.10553459960656016
aF-0.058654338219460235
aF0.0905027847586757
aF0.022095502009584732
aF0.05385490854053948
aF0.14900272541715953
aF0.0471444320711594
aF0.18730627320585524
aF0.09878397249955508
aF0.13298925703708814
aF0.06544608366068004
aF-0.00068199504223003
aF-0.004911566969923215
aF-0.03456087674986153
aF-0.2504061404067432
aF0.0034555958682385536
aF0.0013192857318759647
aF0.28479537146198924
asI25
(lp27
F-0.16756603125774897
aF-0.08289412883141863
aF-0.19800574752139896
aF-0.036420323747420505
aF-0.16770218883294177
aF-0.04428159624239415
aF-0.02345132557490418
aF-0.09797325701834805
aF0.0552520908811039
aF-0.10507042705914263
aF-0.03683993129699265
aF-0.06598941604490122
aF0.005203626311094586
aF-0.04318037735711189
aF0.006418279154570249
aF-0.02392800890741839
aF0.003840644783944539
aF-0.031658155680405024
aF0.010365390969083796
aF-0.022889399054902837
aF0.006453445748297605
aF-0.015475166156831104
aF0.018415118841104555
aF-0.0818676706696865
aF0.1345783681648493
aF-0.01326769528878774
aF0.020568631496102933
aF-0.013603138778775864
aF0.020958352436879324
aF-0.006229865030776403
aF0.03172165707950377
aF-0.0025830613984075316
aF0.022202849685796694
aF0.020795639519859865
aF0.05072965301052518
aF0.0022735367396379447
aF0.07436332345878109
aF0.06075405992709633
aF0.10613010546796536
aF-0.05134436477483026
aF0.08914267238910481
aF0.01687629965518073
aF0.04835848779925038
aF0.15144287105427234
aF0.04237478944681178
aF0.1872120406120096
aF0.09423913122706301
aF0.13361928808194115
aF0.06431837589412048
aF-0.0031937220730775887
aF-0.00293796912047846
aF-0.034468557622861676
aF-0.25113415931807387
aF0.0014098950537661374
aF-0.0028201657998561517
aF0.28466920061588247
asI26
(lp28
F-0.16724213792677564
aF-0.08597171610323455
aF-0.1950973967309369
aF-0.04099957459466903
aF-0.16391239268655255
aF-0.048517216897119964
aF-0.0212302380507253
aF-0.09698277103158252
aF0.054637268716539684
aF-0.10311656708465036
aF-0.03344425416751222
aF-0.068515805226552
aF-0.0007505830867140975
aF-0.042589804889863164
aF0.007770762176657513
aF-0.020514737186318854
aF0.0021952009350480984
aF-0.03296144235974386
aF0.007464648574707351
aF-0.02569354994380741
aF0.011459078527245566
aF-0.019688958899244987
aF0.017383115342980787
aF-0.08148868137703219
aF0.12855837231066763
aF-0.015655416459498125
aF0.015799086042425248
aF-0.01100722519964543
aF0.023997437493216815
aF-0.013416916922991615
aF0.02971459955090566
aF0.00046263373610865916
aF0.016387187929860162
aF0.01838639687372531
aF0.05315906058008371
aF0.005462618060806543
aF0.07070498172394371
aF0.05828847072724284
aF0.10022240534437715
aF-0.05578778400748607
aF0.09344793568903195
aF0.01677435178393937
aF0.05232773337870535
aF0.1533763978634226
aF0.045516574102543866
aF0.1858945161748049
aF0.09509878163189486
aF0.13202711673885126
aF0.06386846258807956
aF-0.0039457262448563055
aF0.0022802699878374643
aF-0.030080332006943898
aF-0.24885457557653468
aF-0.0004839492040306951
aF-0.0006189749254226846
aF0.2834702142632404
asI27
(lp29
F-0.16484383434785815
aF-0.07988671959973156
aF-0.19520833140276506
aF-0.04368645588481646
aF-0.1655484359375421
aF-0.04540360666663573
aF-0.02000085788835757
aF-0.09171171456113181
aF0.055068701528697694
aF-0.10780917085408222
aF-0.036736271870461704
aF-0.0728367346609683
aF-0.0021063900106358347
aF-0.04283854620396805
aF0.010565618509067932
aF-0.02056044620344467
aF2.0170134561109724e-05
aF-0.03477090159265532
aF0.008380351351160735
aF-0.02679944904910033
aF0.0034707459759598844
aF-0.018967835496228675
aF0.010862545305387735
aF-0.07967714008458897
aF0.127948327392763
aF-0.020858439019486773
aF0.020589777548502317
aF-0.010255389909410828
aF0.01925807790681131
aF-0.012830245828115247
aF0.030357012454950916
aF0.0009059985316993966
aF0.023988144831557003
aF0.014098104015147501
aF0.05078940627726229
aF0.0031472214088831447
aF0.07134852448426947
aF0.05739458000882368
aF0.10567955265091589
aF-0.051047343123341006
aF0.0940181411134684
aF0.024778890775852613
aF0.05473289627756979
aF0.1505633072430723
aF0.04849910380227032
aF0.18434859016635013
aF0.09067421281146604
aF0.1303292429929294
aF0.06554401470638153
aF-0.0049493633864873205
aF0.001970932728507828
aF-0.03209062948348627
aF-0.24964960144208875
aF0.004349854744733905
aF-0.00379622840962105
aF0.2866090791289156
asI28
(lp30
F-0.16674214878831015
aF-0.08629504155784914
aF-0.19521872086621164
aF-0.03869114251175616
aF-0.16675367276714442
aF-0.04159259339209711
aF-0.018241932768672017
aF-0.09262686244094245
aF0.05462256080104154
aF-0.10479866942804271
aF-0.03767839758623098
aF-0.06910127454360458
aF0.0018150178691424413
aF-0.042637764980469575
aF0.007891687440869256
aF-0.017929833379972754
aF-0.0024588800091801936
aF-0.0336240075254819
aF0.014389583227749296
aF-0.028640676597456227
aF0.0042404968010512885
aF-0.020703666599798005
aF0.008925918518412856
aF-0.08333494660187812
aF0.1351047937679282
aF-0.02055812723039665
aF0.012723654245200448
aF-0.011647680952848995
aF0.023889841534617297
aF-0.008387707593430778
aF0.03849483771065287
aF0.0019205657013528904
aF0.024679050979296315
aF0.01543765044611813
aF0.04391768961689954
aF0.005450488145587563
aF0.06841711392799077
aF0.06176013639235737
aF0.10520615557540863
aF-0.05278871405872177
aF0.09469368864847419
aF0.024469061531439323
aF0.0479948048454833
aF0.14953408599450357
aF0.04203896356797251
aF0.18332800842392089
aF0.09370501258026934
aF0.13106970379659452
aF0.07097308111148347
aF0.00028332345935375695
aF0.0015498332874934316
aF-0.03568754282735073
aF-0.24934186970037728
aF-0.0009594595382082723
aF0.0022167656158312175
aF0.2873862193117094
asI29
(lp31
F-0.16854526874663103
aF-0.08767638953535281
aF-0.19584941005077397
aF-0.04340496723698607
aF-0.16332456312659135
aF-0.04362469417695127
aF-0.019190438131683328
aF-0.0891624232881098
aF0.05051633990056817
aF-0.10414310916403138
aF-0.038615389488825244
aF-0.06913085230169665
aF-0.001258911853263234
aF-0.04973287593777623
aF0.00880542080742182
aF-0.02545022459681781
aF0.003528903715644869
aF-0.028940776529348077
aF0.011443273695261914
aF-0.02951003878953771
aF0.003983340673647212
aF-0.0181421958589542
aF0.013014063502274091
aF-0.07758064967871561
aF0.12731192927025492
aF-0.018774690275985023
aF0.017897097315322314
aF-0.010748308010664545
aF0.022853149737685964
aF-0.006695315665569831
aF0.030617669395339747
aF-0.006181299390190112
aF0.017438100925514923
aF0.019481865420209254
aF0.04909060204180691
aF0.004484302887986049
aF0.06612034728806233
aF0.062278591090593215
aF0.10495061818873577
aF-0.053814329015904855
aF0.08668376306235634
aF0.02172308194916884
aF0.04832461762979291
aF0.1497935953394005
aF0.04651361551595982
aF0.18527820971775452
aF0.09264403009614684
aF0.13573715699277297
aF0.06348794210283716
aF-0.00238018841804104
aF-0.002560759076642812
aF-0.03440798628568357
aF-0.2498438047223403
aF-0.0022967694233878683
aF-9.814401740120999e-05
aF0.28255660673990407
asI30
(lp32
F-0.16784836663042355
aF-0.086841032012428
aF-0.1968016104859401
aF-0.03810856735038913
aF-0.1657428278927633
aF-0.044809192535618374
aF-0.023475805271420055
aF-0.09182409795086113
aF0.05871190914205078
aF-0.10520482938260117
aF-0.034266616899139235
aF-0.06866964171760694
aF0.0027112387119551462
aF-0.04766377989583807
aF0.01243744987285344
aF-0.024381940653348987
aF-0.004480978557483831
aF-0.03191084760756871
aF0.014253680833056257
aF-0.023121176872795027
aF0.010592392398416965
aF-0.022579707286457182
aF0.015612246909625111
aF-0.08095886450569875
aF0.12827667556553876
aF-0.01433353529011798
aF0.014584777212059898
aF-0.010492248417085851
aF0.01843456906151156
aF-0.012516248427083352
aF0.036194874946999425
aF0.0024824382096759446
aF0.01967517016863178
aF0.021816108850272888
aF0.05358249299545179
aF0.0026560322089847405
aF0.06627769078523447
aF0.061510725561245594
aF0.10442317180282391
aF-0.051536372425441235
aF0.09351784075416668
aF0.02445933158382438
aF0.056269434232834536
aF0.1475594240243124
aF0.044355291297953826
aF0.18460838406623825
aF0.09100883451053322
aF0.13245625694948193
aF0.0699046335337583
aF0.0045290749650716425
aF0.0036318575800554876
aF-0.03285851934174396
aF-0.2492957710036884
aF-0.000898743490300829
aF0.000424418589311643
aF0.28776295243747474
asI31
(lp33
F-0.16673287533058903
aF-0.08053590110698707
aF-0.1969377694098832
aF-0.04376665131743378
aF-0.1668011456852641
aF-0.041251454037459834
aF-0.02479113914346659
aF-0.0922293964006577
aF0.052053532558821766
aF-0.10267756643549221
aF-0.036649103204670415
aF-0.07132669197719338
aF0.0038514579964097303
aF-0.04547758877092922
aF0.0058040332086277706
aF-0.020983584787351878
aF0.0006906660817589354
aF-0.03682965220123215
aF0.01264531520756318
aF-0.024028368931881674
aF0.009669792749557187
aF-0.020951104592416267
aF0.014333242890981228
aF-0.08031071003142319
aF0.13068295283375342
aF-0.015930083784800896
aF0.016399726484965675
aF-0.00736527460681474
aF0.020715176578450418
aF-0.00699407470185981
aF0.03776671760615117
aF-9.920082426503806e-05
aF0.017892048392662653
aF0.015238143728996621
aF0.052977680618474125
aF0.004252177563397602
aF0.06771259515902052
aF0.06431958047100582
aF0.09917143972077379
aF-0.05316922553673951
aF0.08708393481454399
aF0.022504049159690346
aF0.05583436922600863
aF0.15043225926454354
aF0.04769219944418601
aF0.18473147491026182
aF0.0965114082710023
aF0.1353753829882438
aF0.06604220148550367
aF-0.0035767885790978712
aF-0.00418699118467454
aF-0.0343447267906438
aF-0.2500090691307493
aF-0.00040769359501627127
aF-0.0005411753987520115
aF0.2835926389115261
asI32
(lp34
F-0.16663921366679663
aF-0.08108567466240876
aF-0.1967541925575979
aF-0.039287092878743324
aF-0.16388884875075624
aF-0.04131236246085637
aF-0.018962041714677517
aF-0.09560654185915694
aF0.053051297743551856
aF-0.10628495470157244
aF-0.035086715728235275
aF-0.07094158704955467
aF0.003452323138246842
aF-0.0433516052830344
aF0.007451013266529121
aF-0.02376994283633644
aF0.0025412922779946908
aF-0.03608852515552482
aF0.007058152624993958
aF-0.02740020456271507
aF0.008822614097655519
aF-0.023705664583203483
aF0.015174680605722694
aF-0.07800943198865691
aF0.13568290127108681
aF-0.014835295936181598
aF0.016045858404516923
aF-0.011711050605273407
aF0.021199284093936316
aF-0.013830030753992001
aF0.03357460369762742
aF0.0028538496231958815
aF0.023140727392174192
aF0.01949101931801873
aF0.05150210231137093
aF0.001425414846681783
aF0.07304444990908557
aF0.05802103101930189
aF0.09768264966406809
aF-0.05465234162352152
aF0.09098461910457278
aF0.01867564040416827
aF0.04726458917454462
aF0.15384155318253445
aF0.04653345216985594
aF0.18391882037115437
aF0.0916039942118022
aF0.13427292615264644
aF0.07004340653225735
aF0.002357326303141625
aF-0.004986498511583818
aF-0.034177100387681666
aF-0.24987608118801974
aF-0.004404041181631899
aF0.004928812960654559
aF0.28500502084796653
asI33
(lp35
F-0.1673352724869062
aF-0.08584428441833254
aF-0.19703246921203765
aF-0.03707543123166981
aF-0.1650131923419268
aF-0.04967187172596749
aF-0.02342353362934633
aF-0.09783783023980473
aF0.05515981646201832
aF-0.10311253096028154
aF-0.037436825088506834
aF-0.06815234345428277
aF-0.0026229698175940824
aF-0.049595342539558385
aF0.006289060354511173
aF-0.018376134979547164
aF-0.0004698355910324493
aF-0.028331739837255877
aF0.009378618888379589
aF-0.0249555685362393
aF0.0066119463244871755
aF-0.021272159919781847
aF0.016415668295226393
aF-0.07673660326182954
aF0.1362375402670499
aF-0.01637132200350107
aF0.012449311346201133
aF-0.010913749252995588
aF0.027232430802289223
aF-0.008049823638115437
aF0.029233104906610498
aF-0.0036214418334226885
aF0.01993506164794219
aF0.01642955219121493
aF0.04480903873877496
aF0.005152480466919437
aF0.07529819028578451
aF0.06325781230147699
aF0.1048628778922528
aF-0.053770264188051906
aF0.09102517762141532
aF0.024528527062162127
aF0.05592485108771828
aF0.1501946481005786
aF0.044585730012213366
aF0.1864957913804762
aF0.0925790871712677
aF0.13174144341007343
aF0.06844703057833804
aF-0.0017910460121323805
aF-0.00261858120111996
aF-0.03037056813186262
aF-0.24941157879779288
aF0.0007369734386955774
aF-0.002512255233464334
aF0.28448203509682884
asI34
(lp36
F-0.1672923889477675
aF-0.08540874277270566
aF-0.19451388985346668
aF-0.043877681681951546
aF-0.16588881753210408
aF-0.04469900647415487
aF-0.019619963736613164
aF-0.09446832662126536
aF0.05804875111320402
aF-0.10255522080817218
aF-0.03419709817546646
aF-0.0715796152882521
aF0.0027308969349704912
aF-0.04844345643335221
aF0.005200391274819874
aF-0.019502792293433432
aF0.004524736021879629
aF-0.029280406549999746
aF0.016128864566999516
aF-0.02271212107786622
aF0.007002937078682958
aF-0.02152169456867668
aF0.013560096795362131
aF-0.07602939125584024
aF0.13275706980346755
aF-0.01890815385133809
aF0.011905651133777959
aF-0.012654406117139505
aF0.01864449510660341
aF-0.011595426310952015
aF0.033536326919716475
aF-0.002798702482992856
aF0.018253383443674494
aF0.01685585932410305
aF0.047722396185940395
aF0.004428947388057257
aF0.06975872571605979
aF0.05674079303887756
aF0.0977622090783102
aF-0.05704335664650055
aF0.08692622010354016
aF0.022737194786611712
aF0.050595979850315595
aF0.1496630069020594
aF0.045964366249752434
aF0.18637773537336663
aF0.09476412439292894
aF0.13337616460196344
aF0.06851840925119913
aF0.003217148172762285
aF-0.0007971232877024556
aF-0.03848144690491412
aF-0.24903328295137403
aF0.0028744891924654455
aF0.003561119248727242
aF0.28458268553521665
asI35
(lp37
F-0.1652324769419705
aF-0.07921009242735132
aF-0.1967088013371566
aF-0.04181327096804191
aF-0.1657104836561518
aF-0.044772434686514574
aF-0.024447616237457885
aF-0.08996622420123068
aF0.05412068776431874
aF-0.10023709057769346
aF-0.033573246098523364
aF-0.06492847160133175
aF0.00585777729895746
aF-0.04959425671528573
aF0.010522796680829595
aF-0.02462858814454848
aF-0.004409428037491274
aF-0.0347889941460434
aF0.0162162037391612
aF-0.027041230144144855
aF0.004614743227019796
aF-0.023482135110155598
aF0.015776771353435894
aF-0.07898069541453433
aF0.13285628710473882
aF-0.021866804332082622
aF0.0182188078545605
aF-0.011498256504916465
aF0.018842380833148174
aF-0.00964055991173281
aF0.03200537348303261
aF-0.0015965169194022358
aF0.025422173350310925
aF0.021972452421857285
aF0.04894092579566765
aF-0.0026761274331574187
aF0.07532713499441628
aF0.058170776282457134
aF0.10185709785083483
aF-0.04944100651609061
aF0.09294136935914171
aF0.01554681630890779
aF0.05457744923147549
aF0.15359233616769102
aF0.04578240623440564
aF0.18367634405946975
aF0.0896658062921716
aF0.13108581914182552
aF0.0627103398365369
aF0.004986175669068023
aF-0.003762766831515867
aF-0.03317977296376632
aF-0.24778785993481298
aF0.0024261275567290484
aF-0.003190628459918228
aF0.2856382998855541
asI36
(lp38
F-0.16699813321143236
aF-0.08408516724347939
aF-0.19600134067819297
aF-0.043338989252175796
aF-0.16612216375201797
aF-0.047442035153384576
aF-0.018319014479971477
aF-0.09014740023077152
aF0.059283496813632985
aF-0.10578381124864836
aF-0.03352184254346356
aF-0.07145000173260423
aF0.0052892092802363485
aF-0.043472802138924765
aF0.012753517232987514
aF-0.021980355854488907
aF0.004594978191065773
aF-0.029885224376302182
aF0.01028748652786646
aF-0.024597492450096042
aF0.0032999062506532794
aF-0.0164306353360841
aF0.01592095086671331
aF-0.08095486976891449
aF0.128412381207034
aF-0.021194457996110177
aF0.017899812296976514
aF-0.0047006213736466495
aF0.023593714644822357
aF-0.011169544768069807
aF0.03275696045681805
aF-0.0013838164065777489
aF0.02015491001943993
aF0.013259469079266731
aF0.04652242395041644
aF0.0013189745617803897
aF0.07465653145234118
aF0.06073267247155965
aF0.10361936661483676
aF-0.05812167281152448
aF0.08741262171509186
aF0.02008368352894408
aF0.047640081650586176
aF0.14868213102413055
aF0.04390213950724119
aF0.18372573571916206
aF0.09247106744377921
aF0.13434280744735685
aF0.06771724944146966
aF0.00477492666169031
aF0.002254197368239271
aF-0.03662603566414857
aF-0.2495347271129027
aF0.0023452886900556776
aF-0.004396384762678385
aF0.28498900071739136
asI37
(lp39
F-0.1686209577888528
aF-0.08572192077959535
aF-0.1973900774988765
aF-0.038394388039601685
aF-0.16699602365214788
aF-0.04189253447633097
aF-0.022075710968697867
aF-0.09338663548692935
aF0.05781110972770979
aF-0.10377795105030538
aF-0.03476817464858813
aF-0.07315553812661026
aF0.002168625886407532
aF-0.04456997582890685
aF0.012785232104893452
aF-0.02530486054386689
aF-0.003971259504776905
aF-0.03167593082450168
aF0.015578714701243643
aF-0.021593194847462773
aF0.011469427359543222
aF-0.018606394818045133
aF0.012118759585328827
aF-0.07654376418856428
aF0.1346748899993326
aF-0.013378401697090649
aF0.013149513771660943
aF-0.004012222386595646
aF0.026807977542301523
aF-0.010117488600265734
aF0.03432788419356373
aF-0.00569421738809227
aF0.01994265294352671
aF0.013384197671706009
aF0.04945967565093343
aF0.0007168013116761005
aF0.07445251188961091
aF0.060270578308851123
aF0.10006866849598599
aF-0.05446260907017709
aF0.08802852980492303
aF0.023026473043568193
aF0.05462943660553968
aF0.14870236060398856
aF0.04792625149578056
aF0.18547543708738837
aF0.09736235026961881
aF0.13482653318621124
aF0.06457706369372909
aF0.004894255313201239
aF-0.0015552764892610193
aF-0.03714171643977078
aF-0.24937368987864053
aF0.0006003434380822494
aF-0.0015809981291832074
aF0.28360854839626437
asI38
(lp40
F-0.16637713118780387
aF-0.0847886706164665
aF-0.19701269921765593
aF-0.04150693395093298
aF-0.1668402163326699
aF-0.04141988384486043
aF-0.023174811437952303
aF-0.09535233000037205
aF0.05471087939004027
aF-0.10475360282304466
aF-0.037810846819637915
aF-0.06587862060119555
aF0.0023520456378200096
aF-0.049631764064899365
aF0.013896052307957431
aF-0.018603990574124218
aF0.0026206385201367676
aF-0.035475219629330784
aF0.007857198387789022
aF-0.022440940216672332
aF0.010787422973101627
aF-0.02218621591319128
aF0.009429099636506847
aF-0.07665614386738596
aF0.1347875397969445
aF-0.017693567805484804
aF0.015795032008988255
aF-0.004337851741060059
aF0.027080334003716615
aF-0.006682727109933031
aF0.035297606314722556
aF-0.002481915801327258
aF0.018076537102099288
aF0.01940740625531067
aF0.049229698606456325
aF-0.002124824920984321
aF0.06611393059799717
aF0.06366531724486373
aF0.10484892882671515
aF-0.04954064750936277
aF0.0855955324941322
aF0.02074485663174337
aF0.0478308204951637
aF0.14715026761905795
aF0.0415455558780845
aF0.1856954661816284
aF0.09509578092579421
aF0.13256258912383986
aF0.07070454930883464
aF0.004283073098458106
aF-0.0026092905288567503
aF-0.03827053613066612
aF-0.2498507727956263
aF-0.004144569536779085
aF0.0019133726015498843
aF0.2877486161147158
asI39
(lp41
F-0.16835637433892667
aF-0.08069520892620051
aF-0.19714249240475024
aF-0.039998901481183034
aF-0.1657391448512204
aF-0.04852573857629256
aF-0.02177441756666948
aF-0.09096707251602765
aF0.05741092711912923
aF-0.1038225839911813
aF-0.03885734398126722
aF-0.07244642100012828
aF0.002464176885989209
aF-0.04825938455703378
aF0.008368134614042153
aF-0.018351161781207614
aF0.004242234981833315
aF-0.03420881557812669
aF0.011521744298834877
aF-0.0293484745905505
aF0.007922675124655835
aF-0.023901750478784976
aF0.01760105801409309
aF-0.08164367275210828
aF0.13388142943770068
aF-0.015286018308995994
aF0.015454220679050971
aF-0.012343869258695623
aF0.02577520546005326
aF-0.009223180461183495
aF0.0302546768687477
aF-0.0011071959850710708
aF0.024857283229273767
aF0.021515000127203737
aF0.05307238911046225
aF0.006472245194384299
aF0.07446058580982857
aF0.06110948126200304
aF0.10112852257669651
aF-0.05363383802719186
aF0.09448762964383298
aF0.02088226272077105
aF0.05631308327455512
aF0.15282140822495563
aF0.04793911983697004
aF0.1848920236816754
aF0.09088048815748405
aF0.13538093973345486
aF0.06289093454200198
aF-0.0019240857482009377
aF7.589350704114419e-05
aF-0.03968513119653107
aF-0.25009010286191785
aF0.00016689117611578798
aF0.0008389310676437049
aF0.2828391497657929
asI40
(lp42
F-0.1668175503094694
aF-0.08306250012970383
aF-0.19753116338900154
aF-0.03982699129790984
aF-0.16811780982418487
aF-0.048310395188068504
aF-0.017606118841525298
aF-0.09078431700325253
aF0.0588546793034741
aF-0.10732040121758898
aF-0.03676174513926632
aF-0.06659211919901566
aF0.005120841607433172
aF-0.04664416057345857
aF0.008439489591645975
aF-0.02478980327627394
aF-0.004928456676370397
aF-0.03221030270007548
aF0.010193995818060015
aF-0.02780697029188616
aF0.009153233311599576
aF-0.016922594034854098
aF0.016092502834234603
aF-0.07785222204444726
aF0.1331820764230537
aF-0.012939496966033285
aF0.01813930222270144
aF-0.010352346075260446
aF0.021583494097114832
aF-0.014285284255175269
aF0.03799131345816249
aF-0.005789457015760225
aF0.024637192599290692
aF0.022061477117081126
aF0.04804994683275133
aF0.0013074340047816743
aF0.06716203624896008
aF0.06393333468148447
aF0.1057149766724146
aF-0.055734212789714764
aF0.09225020183334082
aF0.023180868072796665
aF0.05027091901158705
aF0.14764865128527374
aF0.042764298836413965
aF0.1854109724701311
aF0.09823524927108467
aF0.13385571635771915
aF0.06571667928918311
aF0.003340369621742563
aF0.00017823564471165592
aF-0.034345113128450275
aF-0.24931942637723026
aF-0.0010365142006850594
aF0.0009815404088579125
aF0.2854124481265984
asI41
(lp43
F-0.16755879778739888
aF-0.07973765119767645
aF-0.1987702473304739
aF-0.043048989619851055
aF-0.16505061354803827
aF-0.04627955355621846
aF-0.025547957217317778
aF-0.09443087579675502
aF0.05833404007897904
aF-0.1027908771039267
aF-0.037752464883342655
aF-0.07310674631536444
aF-0.0027042394259882427
aF-0.049716776810076226
aF0.011573552017937734
aF-0.019940675447935416
aF-0.0025659637388258344
aF-0.03286230459433908
aF0.015527690474240439
aF-0.028711329720324093
aF0.007650569761269656
aF-0.022990521481488765
aF0.01006321076164611
aF-0.07635538620695108
aF0.1303316441749075
aF-0.01708930605663323
aF0.014713532272134726
aF-0.004762970334941725
aF0.025223550926473375
aF-0.011616931867393055
aF0.03555454366021474
aF0.00026773364744805473
aF0.02006281917605309
aF0.021589455138064675
aF0.04442420774184911
aF0.00443113663985189
aF0.07475706721993375
aF0.05932569881213902
aF0.10276395218253773
aF-0.05090433967358672
aF0.0891859073605786
aF0.02483721986913935
aF0.05673263896871342
aF0.1546614290954823
aF0.04422284963610072
aF0.18740095379056013
aF0.09673918152827529
aF0.13333277875001462
aF0.0659150426682051
aF0.0001913214083051519
aF0.0038760969632006125
aF-0.032817937318105506
aF-0.2506461001404163
aF-0.004004213340731546
aF0.004448427805075288
aF0.2840875289654052
asI42
(lp44
F-0.16677987155440033
aF-0.08172195269947773
aF-0.1954453996508412
aF-0.03841655204626598
aF-0.16473970518949765
aF-0.04245631706025705
aF-0.018781394429830702
aF-0.09024292193328828
aF0.052370067643178746
aF-0.10882804135867531
aF-0.03270151332541534
aF-0.06939289917441493
aF-0.0002568729302573379
aF-0.045464297893393
aF0.011105907219595403
aF-0.02245943324614314
aF-0.0003973070763284256
aF-0.03166670405882729
aF0.015913453789037503
aF-0.02716137836332261
aF0.007172002305689157
aF-0.016476174026463914
aF0.009693467669395758
aF-0.08152458461121537
aF0.12778433651614013
aF-0.015783033605648387
aF0.018765160720755035
aF-0.005682899274426383
aF0.020510760165683425
aF-0.014219621347368655
aF0.03291511307710457
aF-0.000559678921043296
aF0.024296233695914903
aF0.019413063117189867
aF0.04561310138139645
aF0.0038462176378542784
aF0.06641104423981788
aF0.059673621060980925
aF0.10406507519486236
aF-0.05780659818290008
aF0.08959173848941587
aF0.016398823526365038
aF0.056142111472957355
aF0.1524936277694009
aF0.05135301247078153
aF0.183511826467363
aF0.09152319133893605
aF0.13398562323721366
aF0.061856988738509984
aF0.0036964698931014664
aF0.0029951780844520407
aF-0.03842969103647208
aF-0.24921742443989986
aF-0.004825483765313519
aF-0.003592820753354079
aF0.28478669127197875
asI43
(lp45
F-0.16768647951292803
aF-0.08467230894416383
aF-0.19664339325596483
aF-0.0413034728670908
aF-0.16365177630889452
aF-0.0423303273636636
aF-0.019364565774698216
aF-0.09672799806697344
aF0.0580305738250215
aF-0.10492270359860836
aF-0.03819454962311972
aF-0.06662240792114067
aF0.004931136383678149
aF-0.05005829189713597
aF0.013341714097479147
aF-0.01820270853446575
aF0.0019348960890352908
aF-0.031143864644818248
aF0.013048571382152398
aF-0.025210362685873684
aF0.010659662278638876
aF-0.022050619762474404
aF0.010019254364302245
aF-0.08163510268535974
aF0.13410018075781638
aF-0.015239557054928103
aF0.012900606292760637
aF-0.009854223174724236
aF0.022797314148142473
aF-0.006964680588485142
aF0.03107033790402378
aF-7.378445858679982e-05
aF0.018540369513287015
aF0.017214316439632928
aF0.04621481347279328
aF0.0014934743780737312
aF0.07424816903862098
aF0.06102589778518908
aF0.09732930705692504
aF-0.054534088713541436
aF0.08783271128907834
aF0.02080036018037171
aF0.04864396373972701
aF0.1538517892845032
aF0.043089484041633236
aF0.18559532471176696
aF0.09046101977960896
aF0.13118775879816819
aF0.065027330641308
aF0.003295299461264762
aF-0.0023680981494837534
aF-0.0317752623201425
aF-0.24903372388718775
aF-0.002348767470647814
aF-0.0004824659168721351
aF0.28395245193292706
asI44
(lp46
F-0.16892901582565326
aF-0.08546027366648014
aF-0.19582717364692132
aF-0.042912270022774944
aF-0.16353118916014417
aF-0.04474335838950203
aF-0.022915923296332404
aF-0.0954069328449803
aF0.050648996752740226
aF-0.10645340796017504
aF-0.03797715325607829
aF-0.06757497727130342
aF0.0003561669896923922
aF-0.04582869197016068
aF0.006402912065549634
aF-0.026055450352929343
aF0.0026252559028621253
aF-0.035642975052932006
aF0.016423881350368146
aF-0.028225178783728797
aF0.0035434814953590713
aF-0.01621955478834745
aF0.011216165417928558
aF-0.07629825825322355
aF0.12885201514088615
aF-0.014060219304830231
aF0.02094119351859806
aF-0.012709062245802875
aF0.02503494907253199
aF-0.0084293048375603
aF0.033446269467862486
aF0.0026922221484662365
aF0.0246895546774921
aF0.01296358241993467
aF0.047586988021836626
aF0.006271683413819559
aF0.0687254723841806
aF0.06127438005386683
aF0.1043885618209457
aF-0.05202284614723865
aF0.08592899257403662
aF0.024620862847111798
aF0.05360233114896543
aF0.15482219117498
aF0.05213468869982445
aF0.18458331873138012
aF0.09459145291318827
aF0.13594052840356355
aF0.071642295967961
aF0.002345840683399344
aF-0.0033575430867659097
aF-0.038507343816604256
aF-0.2511350986438304
aF0.0025745672609446047
aF0.0031942660546505543
aF0.2862646840569223
asI45
(lp47
F-0.16777331933595188
aF-0.0817214239678388
aF-0.19737905967501201
aF-0.04073414136406723
aF-0.16720305312142592
aF-0.04703242774374802
aF-0.017948011223060115
aF-0.09721201934070439
aF0.05152044460336457
aF-0.1009839718586696
aF-0.03723101095175168
aF-0.0684802450507821
aF-0.0022452543832187873
aF-0.04434978622926457
aF0.009267596761059848
aF-0.026495963240752353
aF0.0004367151822710691
aF-0.03559352982358223
aF0.015196292444387045
aF-0.02355590753598591
aF0.005182620575281025
aF-0.014588480791640025
aF0.011499051844482888
aF-0.07745831212477791
aF0.13301673231451133
aF-0.017271761288618792
aF0.016090459168724786
aF-0.012806380536873135
aF0.020112005681298704
aF-0.008368513967753724
aF0.030179045785752905
aF0.0017977961755216794
aF0.019384176728914574
aF0.01983556747155775
aF0.04651465611475077
aF0.00113036731766541
aF0.06793077709951556
aF0.06258802917843596
aF0.10673081221446541
aF-0.050136840720401955
aF0.08691173085695747
aF0.024929950561402885
aF0.0488852761819627
aF0.15058952496943634
aF0.04600696761398254
aF0.18643671518683055
aF0.0975586311565539
aF0.13513337870369424
aF0.06543485955841455
aF-0.0006525635138146885
aF0.00035998934286639214
aF-0.03389538461761071
aF-0.25092693660357
aF0.0024126024387006117
aF-0.004591890618997752
aF0.2859740370727844
asI46
(lp48
F-0.16794815630490117
aF-0.08816855890077949
aF-0.19581368585473463
aF-0.04318618185309403
aF-0.16639647093632964
aF-0.04206679177180191
aF-0.019383933753018008
aF-0.09608400563729533
aF0.05867295840064321
aF-0.10234793945394656
aF-0.03773184845193165
aF-0.0697417104253422
aF0.004320669859819856
aF-0.050047167335393127
aF0.012650907262280952
aF-0.025176708241984348
aF0.0008620551035034128
aF-0.036562728140323915
aF0.010294705261971442
aF-0.03007973161932068
aF0.012571340470142368
aF-0.02223924568964622
aF0.009272258549532175
aF-0.07630004179389904
aF0.12753273573894727
aF-0.01746737618810769
aF0.01681151612826392
aF-0.011432340147818172
aF0.022486670510303522
aF-0.015690070102949864
aF0.03507426865902415
aF-0.0033284598322590436
aF0.016276149948649555
aF0.019235760423144437
aF0.04525922041029385
aF0.0031399629154167667
aF0.07227680959622823
aF0.06127215441769501
aF0.09897365104312418
aF-0.051863871768795554
aF0.09065246281729124
aF0.022241224461137042
aF0.04787139131217622
aF0.1519801002768952
aF0.04936080139566552
aF0.18734366117005696
aF0.09472797568427055
aF0.13323781627363543
aF0.06931964701673787
aF-0.004826660998324486
aF0.0017354595083220463
aF-0.030471667214293174
aF-0.25004031449595543
aF0.004054155873324712
aF-0.0029346171105609077
aF0.2829681986096926
asI47
(lp49
F-0.16747960802325945
aF-0.08607943640901203
aF-0.1964597228692324
aF-0.04312329297017627
aF-0.16526633529438703
aF-0.048355693888262705
aF-0.01855923303687506
aF-0.09732440119790198
aF0.05470022621985997
aF-0.102340982608701
aF-0.035775391275060124
aF-0.0724084915269231
aF0.0029566930465174186
aF-0.047527418443850854
aF0.010427061829776514
aF-0.022137072744025616
aF-0.002533949784652312
aF-0.029836591247055427
aF0.01244063441710975
aF-0.024272168111908108
aF0.008453258578335652
aF-0.017623758119100892
aF0.009205039591564091
aF-0.07843918838504485
aF0.13134087300867492
aF-0.018109701987446
aF0.0198126178586109
aF-0.004305268350957834
aF0.02113065797478461
aF-0.007184475940637241
aF0.03568953541264804
aF-0.0026942018565380386
aF0.019211945985094923
aF0.020508312022748613
aF0.04730966276930211
aF0.006592489270042733
aF0.06762998926042649
aF0.060652362625873715
aF0.10661460011463204
aF-0.0558681744541663
aF0.08959198526416828
aF0.01691197158271416
aF0.048960237976416736
aF0.14953480338009023
aF0.04929558308773899
aF0.18602033649236324
aF0.09653185374334806
aF0.13260659613269807
aF0.06578113411926978
aF-0.0020294224288697617
aF-0.004256216415931811
aF-0.031139171445326318
aF-0.2492475522725358
aF0.0005448058730677519
aF-0.0032520966742879322
aF0.283701011672005
asI48
(lp50
F-0.1657169803137027
aF-0.08724969843413023
aF-0.19404523940550059
aF-0.04004428282309328
aF-0.16548531909223024
aF-0.047849974717107606
aF-0.02250448431303057
aF-0.09247225562921274
aF0.05386656786621074
aF-0.10041861139215823
aF-0.03415309316178701
aF-0.07301556916314435
aF0.0050656494941990135
aF-0.047150032304432064
aF0.012758227323901984
aF-0.024475283398507155
aF-0.0008728687047304696
aF-0.03515894829740168
aF0.013992923163457486
aF-0.025038445007795167
aF0.004624217467125218
aF-0.018226322481691877
aF0.009796342049308022
aF-0.07747806504541721
aF0.12921145233002695
aF-0.01496230290885458
aF0.01488316015179632
aF-0.012630597716705945
aF0.023337977986295565
aF-0.01354019063494862
aF0.03784372397331685
aF0.0026913772565709025
aF0.02550333184429017
aF0.018104231401513335
aF0.05081985730186217
aF0.0017261410335782585
aF0.07300189995372391
aF0.059816161246874076
aF0.09945650514642629
aF-0.05287164001379635
aF0.08732938759451564
aF0.015818181230152918
aF0.04883816698986281
aF0.14835362779146558
aF0.0414331564781412
aF0.18624357915414322
aF0.09120674670554178
aF0.1310987478223792
aF0.07091052886439472
aF0.0016908566079481633
aF0.0038953744431507145
aF-0.039120961351669245
aF-0.24823342234405824
aF-0.003905246015341551
aF0.0033685418061691276
aF0.28711621138097043
asI49
(lp51
F-0.16762818024532913
aF-0.08307593470515731
aF-0.19631520380820405
aF-0.041178168277712715
aF-0.16781654484316394
aF-0.04697324036568095
aF-0.017356357684472995
aF-0.092504607942092
aF0.05489598846648278
aF-0.1055232412992094
aF-0.034588814692560234
aF-0.06892674083677604
aF0.005075101983415093
aF-0.04358367741411751
aF0.005380177780536708
aF-0.021814865261233166
aF-0.000840531681694362
aF-0.034472811820105566
aF0.008215871455926414
aF-0.026518998587894548
aF0.010834422021617223
aF-0.020027157383716424
aF0.015752416128533918
aF-0.08153534315881575
aF0.12805645479163383
aF-0.012614939671903367
aF0.018544658913515432
aF-0.009211011213569986
aF0.021423506348629204
aF-0.008954449688541033
aF0.038694994619180925
aF-0.006692122435500624
aF0.01770715396775846
aF0.021967717862847434
aF0.05076920702954751
aF0.006289657235548814
aF0.07354947017921604
aF0.05951249161215961
aF0.10000165365091099
aF-0.052329713162205575
aF0.09371223874553003
aF0.0213828593509236
aF0.05301460584181944
aF0.15122529532335563
aF0.04627273909165366
aF0.18213851818653867
aF0.09050776445339112
aF0.1344337710916697
aF0.06998532756885077
aF-0.003573072718965509
aF0.0036531104967476875
aF-0.03317442696262251
aF-0.24949034329971473
aF0.003356771962514646
aF-0.002731996532091225
aF0.28429851356807534
asI50
(lp52
F-0.1651442235408212
aF-0.08218890478028953
aF-0.19494011376748127
aF-0.04164914753312067
aF-0.16417122988883878
aF-0.048183124148178456
aF-0.01701577122251787
aF-0.09531468047188257
aF0.057063340603021075
aF-0.10759262877258871
aF-0.034520993939023845
aF-0.06836404522892066
aF0.0007072007362550838
aF-0.042808953068456376
aF0.005073634440324746
aF-0.018629816641896262
aF-0.003525370559476907
aF-0.03408384513577413
aF0.015012685687534843
aF-0.025679939511311485
aF0.007214310463969338
aF-0.01745084656085994
aF0.014236711627861299
aF-0.07884466559026719
aF0.12846791704354488
aF-0.021507782316813568
aF0.012779142370198091
aF-0.005042544772817011
aF0.019991899027569492
aF-0.012930793522183475
aF0.029788570439985944
aF-0.0003446828312387732
aF0.024215898555002575
aF0.013206063393402067
aF0.04974956761474173
aF0.002583542179377198
aF0.06867889630987137
aF0.059661618150118445
aF0.09989550306145435
aF-0.05697663834169819
aF0.08717452653199098
aF0.02060058519781886
aF0.052130138798459284
aF0.15084308550730874
aF0.045805315130158224
aF0.18492409609866073
aF0.09912978219354864
aF0.1312780293539848
aF0.06310017091740067
aF-0.0032109653739500585
aF-0.0029369386052610588
aF-0.03527853229853052
aF-0.24885923717090336
aF-0.0009571969293113325
aF-0.0021029376495729684
aF0.28409616378291513
asI51
(lp53
F-0.16787989626555344
aF-0.08783445294807628
aF-0.19732291397155358
aF-0.04215055625474617
aF-0.16737617283385237
aF-0.044874980906579674
aF-0.019165190224599598
aF-0.09521360095201406
aF0.054954374710661474
aF-0.10684514940632044
aF-0.03509697666928213
aF-0.07006476912049729
aF0.004128788771517502
aF-0.043582631316850286
aF0.01292526058546476
aF-0.024664788040788022
aF0.0031090266068544694
aF-0.03607171660062948
aF0.01150546328455375
aF-0.023405480827353557
aF0.012437007142152868
aF-0.022406899490099812
aF0.01377173970635177
aF-0.07763041384108418
aF0.1315300713006013
aF-0.01262651129040898
aF0.01639792501725637
aF-0.0076021252003078705
aF0.024129331049503492
aF-0.015136531779538795
aF0.030245035852356328
aF-0.0016858452863620886
aF0.02543040833625774
aF0.021008139645868798
aF0.045148920896452574
aF0.00237246933298551
aF0.07394044226850925
aF0.061544788735516866
aF0.09731329219130369
aF-0.05545640810118612
aF0.09008684525504455
aF0.021517044921815394
aF0.05377740038749432
aF0.15188771866640294
aF0.047215310222299266
aF0.18738047781232264
aF0.09639366816135263
aF0.13529548517336035
aF0.06467413075713561
aF0.0020065036162099756
aF-0.004220166725327726
aF-0.03830758688344784
aF-0.2512753553123903
aF0.004095474590460036
aF-0.002889801643803206
aF0.28480659966206634
asI52
(lp54
F-0.1674982769991611
aF-0.0850924123775819
aF-0.19564729266746067
aF-0.03732264270181421
aF-0.16524417476176007
aF-0.04254669185000053
aF-0.019770015060138223
aF-0.09409230408886207
aF0.05383858615272383
aF-0.10509628923530845
aF-0.03265823118968654
aF-0.06607513343595521
aF0.0013397642898701342
aF-0.050235646842712346
aF0.0089741326549942
aF-0.01886783405703733
aF0.0013866604833860483
aF-0.036092990374365676
aF0.007910709540368361
aF-0.023193096368437756
aF0.009739106019337824
aF-0.015982780904326664
aF0.011471003112473108
aF-0.07671268701565388
aF0.1291893968434023
aF-0.020027986131646316
aF0.01463558431418768
aF-0.008306905130711898
aF0.02309547072581142
aF-0.01023812233903654
aF0.034706535732071914
aF0.00010576787109918425
aF0.01792082274398507
aF0.017332006044298496
aF0.04721402622294501
aF0.006090756579798219
aF0.07513731328391991
aF0.05865576664211224
aF0.09694169590474587
aF-0.05460539424852875
aF0.0887752664101765
aF0.0215123221081546
aF0.04829042365171353
aF0.15232825319653368
aF0.04999334048533883
aF0.1847238159532205
aF0.09135923831698621
aF0.1314359909509729
aF0.07010258896058377
aF-0.0033766736854672656
aF0.00012345266017280398
aF-0.035936439847499606
aF-0.24755863282425708
aF0.002111822422930869
aF-2.945319614149899e-05
aF0.2828909221826407
asI53
(lp55
F-0.16718057957084617
aF-0.08697255569873068
aF-0.19513997072562014
aF-0.0372818240484736
aF-0.16703900104197542
aF-0.04975222960640812
aF-0.01851835970764404
aF-0.09086219055555038
aF0.054236139376369764
aF-0.10810135486799946
aF-0.036194528969040705
aF-0.06907642854023549
aF0.000742902343797721
aF-0.04811293558652673
aF0.005641381634373869
aF-0.02096834867160177
aF-8.61756840713618e-06
aF-0.03255769518322524
aF0.015071445691703192
aF-0.029680973610395872
aF0.012487513669819428
aF-0.017909944866050763
aF0.011772502322674872
aF-0.07542413699193129
aF0.133115443249966
aF-0.014038471952551396
aF0.01639196531794835
aF-0.008003666919136317
aF0.026246202351788796
aF-0.011913088940074099
aF0.030300436113181548
aF0.0010851968167147623
aF0.024137755766871702
aF0.015165312227041865
aF0.04389914844820906
aF-0.001589835672161752
aF0.06613600582072997
aF0.061586226352163126
aF0.10410872740046914
aF-0.05262687933680394
aF0.09176600209221812
aF0.01727899803652093
aF0.04849177059331919
aF0.1521830157713671
aF0.04341574769423299
aF0.18579717087273484
aF0.09289528370354573
aF0.13337361213887877
aF0.06655816534887533
aF-0.004209015081999313
aF0.0002722415303567162
aF-0.03736384167118637
aF-0.25001141387763465
aF0.0038996828016408694
aF0.0027730951095711323
aF0.2836584735870478
asI54
(lp56
F-0.1677010079055588
aF-0.08324914918272464
aF-0.19881896561141177
aF-0.0385122027999708
aF-0.16524976677864947
aF-0.04758484939521526
aF-0.022598333925876235
aF-0.09075176627667285
aF0.05472382815535967
aF-0.10187823170184236
aF-0.038498682547282705
aF-0.06828410300552917
aF0.004926769182143974
aF-0.04627298223598618
aF0.010631738818506289
aF-0.02240893375962238
aF0.0016023214592490683
aF-0.030725319659250017
aF0.009198743247526517
aF-0.024992574029751503
aF0.008660691247117101
aF-0.017115179172100262
aF0.011752230198538008
aF-0.07636234380944161
aF0.1346445043201654
aF-0.013006941364506046
aF0.012004483625428684
aF-0.009151637674513555
aF0.026426299826422823
aF-0.007030181059902876
aF0.029063347319981822
aF0.0018434717400266105
aF0.018618560715195097
aF0.015586993535140368
aF0.0481708123011506
aF-0.0023222716473186873
aF0.07362296322993771
aF0.06082831315732079
aF0.10663289880395976
aF-0.05395173273410608
aF0.08855227855996994
aF0.017752087157048707
aF0.047970244721401815
aF0.1546834713026664
aF0.04732931848265383
aF0.18508711887861032
aF0.09270380820416646
aF0.13366680065030082
aF0.07133101983949217
aF-0.0008737749416156014
aF-0.002471968033909087
aF-0.03928588951489196
aF-0.25043953296519406
aF-0.002171492368335724
aF-0.002448851865916711
aF0.2863718214952937
asI55
(lp57
F-0.1659441601728951
aF-0.08447226236841747
aF-0.19731601659659653
aF-0.03704688117088094
aF-0.16310731387934144
aF-0.045018563274603164
aF-0.018336724105326253
aF-0.09443453438494694
aF0.058652778150575506
aF-0.10783598898296619
aF-0.034891544813391226
aF-0.06755239695937805
aF0.0011233551670854533
aF-0.04831149714938614
aF0.0072634325937029846
aF-0.02656226376299517
aF-0.0035196986761783958
aF-0.030372154180867743
aF0.009032250544463143
aF-0.02445980128438648
aF0.009570991292397213
aF-0.021071274179752228
aF0.015138195202512729
aF-0.08203705131889491
aF0.13244428877888653
aF-0.0180134539944791
aF0.011879923380465836
aF-0.009602240545607052
aF0.025182470214618093
aF-0.00793588507706997
aF0.032159026315039876
aF0.0027457708425979287
aF0.020790097643713243
aF0.019640415955411782
aF0.05171463646985544
aF0.0023148131300696905
aF0.07442793595874361
aF0.0623911401696063
aF0.1030518074614752
aF-0.051233064271734845
aF0.08905980372037176
aF0.023651163289596
aF0.05515881605120448
aF0.15324642833606958
aF0.043574708903214056
aF0.18255985996506838
aF0.09784417745239038
aF0.13110770629676727
aF0.06777772319725066
aF-0.003746899003286577
aF-0.0001753904156678132
aF-0.03778802143394067
aF-0.24894558023079763
aF-0.00010380893841218423
aF0.0017064648972674736
aF0.2867169573741095
asa(lp58
F0.008261812732085337
aF0.006408890013167316
aF0.006893745263469584
aF0.007669470067207584
aF0.007673457322952435
aF0.006807901387920008
aF0.008051908119564818
aF0.000747412742185319
aF0.00231448941007955
aF0.003926961051431096
aF0.004289134633726505
aF0.00234220920118312
aF0.007050464324974991
aF0.0052919948713822
aF0.0010044551996985205
aF0.0023494988672147165
aF0.005258146483839469
aF0.0002905847147093788
aF0.0007492947959070176
aF0.004484498968737705
aF0.008348021886753595
aF0.0017924982641851189
aF-0.00033243948034337463
aF-0.00046547502844877954
aF0.005487505856086172
aF0.008479669865660512
aF0.005077534133693892
aF0.007407176423410376
aF0.00777281557153154
aF0.005696114474121521
aF0.007387188575384796
aF-0.0001204842791982219
aF0.0009648220454462794
aF0.006907756767039993
aF0.0014277000726525514
aF-0.00044562782556397957
aF0.0042239451059553285
aF0.008239239211531836
aF0.002504563230747343
aF0.006877932983895399
aF0.0014490836270405953
aF0.0059883691093350865
aF0.00048375050723041335
aF0.007832754224071009
aF0.0020077158896864046
aF5.188976718346576e-05
aF0.006782338620212525
aF0.007958782120111923
aF-0.0008059296401508035
aF0.008263734872310061
aF0.0017126122652979324
aF0.0029642581208117707
aF0.003334074758290968
aF0.004558399538248164
aF0.00520021742877018
aF0.0009820893763030822
aa(lp59
F0.04598525485667841
aF0.0413389788859706
aF0.03887433499756689
aF0.049749547534430366
aF0.04299068136220183
aF0.036102569676073115
aF0.04762127396051727
aF0.040558079425116966
aF0.047439585902286016
aF0.03637618629527227
aF0.035962774454160615
aF0.03622593906152197
aF0.04597274200813223
aF0.039298190475120565
aF0.035136939507348
aF0.0443465589394193
aF0.04563036452751908
aF0.042991416965381946
aF0.032570253202546195
aF0.040637671743573814
aF0.04779445976790028
aF0.04401914675295883
aF0.04147031291091567
aF0.048156951284776206
aF0.04522916029864252
aF0.04681841424745195
aF0.04281205750841936
aF0.041746288453491084
aF0.04274543807545218
aF0.03647659372580475
aF0.05016826724974387
aF0.03879445277864027
aF0.04832750271952689
aF0.047701289248857276
aF0.04079053454746073
aF0.035323319478795565
aF0.044157250860186126
aF0.04223957191472347
aF0.04163242179784962
aF0.04200213931671094
aF0.043907927675076994
aF0.04078301088201035
aF0.04423125119266627
aF0.037937995748851316
aF0.047669133589037224
aF0.04153871929045001
aF0.04482726616697781
aF0.04032609011662329
aF0.03758657424892456
aF0.04074676239763478
aF0.03544226987247483
aF0.05050677407466024
aF0.03660120998972087
aF0.045587537313643525
aF0.04652349593071685
aF0.04037639198298695
aaF6.9757687222206215
a.