(lp0
(dp1
I0
(lp2
F-0.04834565847384388
aF-0.04219934432223463
aF-0.10114011531739231
aF-0.005178365214003335
aF-0.09553631891762063
aF-0.01802463873133599
aF0.003943062723519294
aF-0.04010443542794738
aF0.06656432579358978
aF-0.04648013488382024
aF-0.013856456829133258
aF-0.023585327501072107
aF0.0032675933444512254
aF-0.028772636267179037
aF-0.0006955220409728462
aF-0.006243041737413157
aF0.0008087328653407433
aF-0.008420622077742326
aF0.005944632236528293
aF-0.009432826287498261
aF0.008956238502311328
aF-0.0042468643232464265
aF0.009462416488848907
aF-0.032439065606961255
aF0.10160584403887367
aF-0.01201716352125082
aF0.003389316311439381
aF-0.0032278789187582912
aF0.008047166780996705
aF-0.0008740859603138849
aF0.01742356780626656
aF0.007873082338580917
aF0.00756797039830539
aF0.03687482554537473
aF0.03370309821508994
aF0.009742004406351996
aF0.02932051717315177
aF0.07790751356642113
aF0.05697954666796251
aF-0.05785088306757827
aF0.04201370575627758
aF0.004300997729789311
aF0.021661934794602915
aF0.0871472818689175
aF0.016341022425313163
aF0.11080560986736297
aF0.05999462887890857
aF-0.006833586932129344
aF0.03710967988224403
aF-0.0028521897059928247
aF-0.00022163942444898858
aF-0.011108832537759883
aF-0.13049707076716602
aF0.0008181714063823329
aF9.405694048377508e-06
aF0.1356594773163097
asI1
(lp3
F-0.05328278659663051
aF-0.0443722591326218
aF-0.10036034212615
aF-0.009771907443369565
aF-0.09536020878289964
aF-0.01690152820162275
aF0.003547899633893109
aF-0.03428112023993092
aF0.06768035541588033
aF-0.047006782060646415
aF-0.011541198985198184
aF-0.02161003965675944
aF0.00022270913609307802
aF-0.024440009333857628
aF0.00023858254240781185
aF5.373724531891907e-05
aF-0.0014863539741871903
aF-0.014297674126154127
aF0.006372564686560763
aF-0.002292733352764213
aF0.0059778421658681115
aF-0.0040225279647171635
aF0.0025123645149035295
aF-0.02886030552380635
aF0.09764045470302579
aF-0.010486552284359206
aF0.0009920491610644676
aF-0.005645552771829578
aF0.010784228218906287
aF-0.004298477008867211
aF0.018072159876090163
aF0.004985166949883494
aF0.006747045700293562
aF0.03266156294351021
aF0.02901541872523144
aF0.009865920494544243
aF0.024230100068930425
aF0.07393437992081127
aF0.0595112628428988
aF-0.0590492950882141
aF0.037841814798016335
aF0.004641527772996252
aF0.026144213806142767
aF0.08873618722367818
aF0.018360890361237555
aF0.11645165859598165
aF0.057495601695500206
aF-0.001761071334175476
aF0.031719269515165585
aF-0.0032190090554390384
aF-0.004310299230757292
aF-0.01537995335063844
aF-0.13285843980168296
aF0.002743846979412539
aF-0.00013805022462753057
aF0.13831878720518184
asI2
(lp4
F-0.051708738261204715
aF-0.04221278282218356
aF-0.09918491292191896
aF-0.0065285194728901845
aF-0.08999345796259273
aF-0.018104669024444586
aF0.0022931261068823484
aF-0.03853013558486064
aF0.06388049861166095
aF-0.046593726208411186
aF-0.01507084519540037
aF-0.025966200146619187
aF0.0029799043306399683
aF-0.03017293159491209
aF0.0027561570753054532
aF-0.0068152982032420395
aF-0.004484575613645362
aF-0.009957262636686037
aF0.002404283484741584
aF-0.005537607292559299
aF0.009548493561311499
aF-0.005680703856436645
aF0.0030717104915875698
aF-0.03101761395682202
aF0.10375358348173738
aF-0.0062273846778381995
aF0.0072073351632908275
aF-0.006530895921204901
aF0.003243589432586291
aF0.0033711793962314896
aF0.012246334227424509
aF0.0009920073837884607
aF0.005175184568368357
aF0.03866939448797163
aF0.037928666628434735
aF0.0018099827734933175
aF0.026498767676723024
aF0.07487641512999087
aF0.06064777847222009
aF-0.05529361161658918
aF0.04327095797578742
aF0.00699848556201723
aF0.02295856651819307
aF0.0896843791137279
aF0.017040801602228046
aF0.10961205311824097
aF0.06502089751328023
aF-0.005449116165524464
aF0.033314993788940185
aF-0.0035711728002544196
aF-0.0022316421443193137
aF-0.014059564458474326
aF-0.13036256519090306
aF0.004099190300783262
aF0.00034579473962048635
aF0.13927156770024846
asI3
(lp5
F-0.049342827602770194
aF-0.03719091152230728
aF-0.1019298103309014
aF-0.002537172655857005
aF-0.09486468331791707
aF-0.011303937272241795
aF0.008680542303211556
aF-0.03924240228039779
aF0.07014235717478398
aF-0.05191886097290376
aF-0.009854023032156137
aF-0.027777992740538285
aF-0.0005864203708943455
aF-0.028370777730084885
aF-0.003926088869886861
aF0.0012345191329515804
aF-0.006756195973490957
aF-0.015940352158591877
aF0.001904970355270065
aF-0.009096587710661574
aF0.005994164059291858
aF-0.008471101721551497
aF0.003985044094660862
aF-0.0309025092020094
aF0.10291623894376671
aF-0.004497396771524032
aF-2.619721759193829e-05
aF0.0005267854682035535
aF0.011459196517306503
aF-0.004439802140398086
aF0.01465343903724438
aF0.0004327057145482556
aF0.007831202696785685
aF0.03407288785819153
aF0.035439961030369595
aF0.0026916678334305668
aF0.022825574416640702
aF0.07750970586924306
aF0.05997176649167253
aF-0.059452204608399
aF0.04065950136776793
aF0.00819279449968746
aF0.02545290475923727
aF0.09504289821737368
aF0.013016333981632442
aF0.10818659938552568
aF0.060150567777796
aF-0.0007839265587958104
aF0.033077835736416775
aF-0.004520531390634169
aF-0.004874932569196784
aF-0.010959067660341042
aF-0.13452532129260256
aF-0.0038578796214959153
aF-0.00025352289970650884
aF0.14200642756584594
asI4
(lp6
F-0.05172356087888268
aF-0.040496050154441174
aF-0.10115207356443257
aF-0.008446164763014402
aF-0.08941374727083243
aF-0.013219041652800384
aF0.001865202401328241
aF-0.035028382095825206
aF0.06002658500085259
aF-0.0487749620866221
aF-0.014617548018929656
aF-0.02659245399234045
aF-6.601029301499332e-05
aF-0.025642718422342857
aF-0.002761487540779981
aF-0.0007065604038247783
aF-0.0048240427208284175
aF-0.013155950000088044
aF0.005426640316163534
aF-0.00846193611478944
aF0.007102823595355202
aF-0.00270816356381805
aF0.009677013777290935
aF-0.03207805786065799
aF0.10480549585477705
aF-0.005723311001018126
aF0.0019965138424771767
aF-0.001475842094052164
aF0.006826813404932008
aF0.0015938814872374948
aF0.01437580851493695
aF0.007833859511184723
aF0.0005713316100747467
aF0.03618342518911618
aF0.03350803363266232
aF0.0010311722817137141
aF0.03076443146806853
aF0.07359267773573301
aF0.054742263555397665
aF-0.05687731094254159
aF0.04054254020663308
aF0.0040160426766752775
aF0.030394290549872034
aF0.09082116399750517
aF0.016493430942699536
aF0.11006827189267106
aF0.061567165782609394
aF-0.0011140417037175591
aF0.030312119991663552
aF0.0005104984100483374
aF-0.0009101466274184748
aF-0.011737289471827722
aF-0.13309779471331284
aF0.004960689231861011
aF-0.0018513976235754687
aF0.13471916231560074
asI5
(lp7
F-0.047980899371551686
aF-0.041610621137408495
aF-0.10140295730492083
aF-0.0022160867842454714
aF-0.09228635542682155
aF-0.009972390972676526
aF0.0067083046391948845
aF-0.03580008658639153
aF0.06824684671152186
aF-0.04900274442313844
aF-0.01000351246081842
aF-0.025436391963151388
aF-0.0006980850713146365
aF-0.027749384470147513
aF0.0005898536462379747
aF-0.006898102138795425
aF-0.005076585172912077
aF-0.01605385801392432
aF0.00083235009347836
aF-0.0038628589200746365
aF0.006762259186543292
aF-0.0029360867186593803
aF0.00048486404301503636
aF-0.029971493977031378
aF0.10270037242803516
aF-0.003780426198894447
aF0.0058766646380696156
aF-0.00033511369690201017
aF0.004880716801221465
aF-0.001902463144233362
aF0.014915546160522205
aF0.006076603863901913
aF0.0007735889848464619
aF0.03241206063003409
aF0.02884147967148828
aF0.0004869537300944265
aF0.02201815143298774
aF0.07502663603679342
aF0.05201751474615827
aF-0.05924929038742357
aF0.034671991944256554
aF0.0019618502657662213
aF0.022281011015301787
aF0.08527110433483116
aF0.018981837378557912
aF0.10825445683286486
aF0.055305311851924235
aF-0.004371194217281416
aF0.03709060671068376
aF0.000504573284327241
aF-0.0002191032753489175
aF-0.011899562334183959
aF-0.1324367304299259
aF0.0031155706380708915
aF-0.0011261319836198503
aF0.140833763859132
asI6
(lp8
F-0.05294498427055103
aF-0.039925313646054054
aF-0.10322287747509266
aF-0.004177516859612117
aF-0.09536249160822771
aF-0.012347816526705913
aF0.0054817630096578905
aF-0.03631745770073738
aF0.06168023384458261
aF-0.04524439177225312
aF-0.007956997812593831
aF-0.02164196980709839
aF0.0038474893611135977
aF-0.029072153417670325
aF0.00251008096284106
aF-0.0035238734270923036
aF-0.005500105487165975
aF-0.009201503466348647
aF0.003963418628855533
aF-0.007152932460877766
aF0.0013023133079212597
aF-0.005107950082666136
aF0.003657726431549133
aF-0.032726772188368315
aF0.1018501019719849
aF-0.012126078283181968
aF0.002863820875508372
aF-0.004326690955082611
aF0.01137035600292525
aF0.0037164643728122555
aF0.02145169595308257
aF0.009945909252805933
aF0.0006177408718709331
aF0.038197971448455166
aF0.03004581807121409
aF0.007276334042566457
aF0.025969873934933895
aF0.06931407497429594
aF0.05783733630551215
aF-0.06219440149262649
aF0.03398410065368435
aF0.005528710421968705
aF0.02513655657035074
aF0.0946513115230244
aF0.01532721146424035
aF0.1146078546046901
aF0.06210863053049723
aF0.00023784007216610736
aF0.03720722536703115
aF-0.001188820305853965
aF0.002998751833439829
aF-0.015417609174869144
aF-0.13309401343430527
aF0.0010380585008681466
aF-0.0021866236144003227
aF0.14159446985422722
asI7
(lp9
F-0.04735400634066226
aF-0.04076203309831961
aF-0.10223417029835932
aF-0.00938173176377219
aF-0.08793382424950283
aF-0.014469794759949134
aF0.005858795416031064
aF-0.0337222877645447
aF0.06633480424358659
aF-0.05263427039715081
aF-0.017149371738288528
aF-0.027009853800152136
aF0.006297201440021316
aF-0.026705554338303912
aF0.003962751290816079
aF-0.005988129433885153
aF-0.0037925117504085605
aF-0.011411423272565694
aF0.0017983299385244725
aF-0.0035845734276946117
aF0.0093932956394189
aF-0.005637437108685501
aF0.006935267084567703
aF-0.02836518114684307
aF0.09506281821266821
aF-0.008954643065957646
aF0.00030030215398467724
aF-0.002041295289971782
aF0.005708188052383939
aF-0.0019193375407586702
aF0.018575614570261318
aF6.537393085480953e-05
aF0.0003650360434505321
aF0.03796671648555292
aF0.030468931399995326
aF0.0002688298590927502
aF0.03069808634811142
aF0.0717872813631947
aF0.05342317089280438
aF-0.054083733752210775
aF0.0360173177180906
aF-0.001740781269378632
aF0.019758403059123523
aF0.08623379392365851
aF0.01619006290192842
aF0.11200563962501317
aF0.05602066244279546
aF-0.0046590377596246926
aF0.030533855027144795
aF0.0003595672599149438
aF0.0022647787919957323
aF-0.01682450330860532
aF-0.13217809597084348
aF-0.0007375218380242675
aF-0.003354495478832
aF0.1409231576038272
asI8
(lp10
F-0.052648154869408985
aF-0.04294989576496662
aF-0.09849336620988114
aF-0.00704416431818099
aF-0.09258243343232567
aF-0.014095970818642743
aF0.009158417754312522
aF-0.040534490991664916
aF0.06502264093121515
aF-0.049043991283777004
aF-0.016131605030097352
aF-0.019736271626190554
aF-0.001216731779354047
aF-0.03007377458070028
aF0.0013030481055977094
aF-0.006262796095111454
aF0.0012561033091216
aF-0.011545130298508618
aF-0.0004170104502290402
aF-0.002345850566780074
aF0.010077411730141584
aF-0.0010529353961448492
aF0.009976287806231063
aF-0.03387730111481072
aF0.0987300066007032
aF-0.007079050864212608
aF0.006790921074268031
aF-0.007060524693316693
aF0.006736296292279272
aF0.0028701963807402425
aF0.011877989830838315
aF0.004817793477947398
aF-0.0003280964609495945
aF0.03378079709557282
aF0.037923109431445924
aF0.0003136769444264909
aF0.022904692681295153
aF0.07329224726423263
aF0.06016924527729697
aF-0.05790345770094151
aF0.036149335888770784
aF0.0033691330418481502
aF0.019967400315406312
aF0.08896542887608953
aF0.020225045776351015
aF0.11564657723220004
aF0.06527593148987372
aF-0.0044802642008729375
aF0.0333685786961002
aF0.0031188126845704844
aF-0.0006924507067736907
aF-0.011462245071312662
aF-0.13078865688333519
aF0.0015822373088553244
aF-0.004237460374336505
aF0.14389912329107724
asI9
(lp11
F-0.048711155193808475
aF-0.04514930272825348
aF-0.10094464241552675
aF-0.0026074729234623357
aF-0.09010626198730143
aF-0.011458426895194329
aF0.005454167802138237
aF-0.03189299751926073
aF0.06177767538642088
aF-0.047653968331863285
aF-0.009790093547155083
aF-0.019755072524410576
aF-0.0007717192105448128
aF-0.022932633638171253
aF-0.0028450251035406983
aF-0.008212410424111301
aF-0.00781208103321255
aF-0.009251306619159693
aF0.005296493757635601
aF-0.006919992178089618
aF0.0015149836146770449
aF-0.005699135314736618
aF0.0032224920635935935
aF-0.029656488689721813
aF0.10093359948943553
aF-0.01206779180038945
aF-4.826222472975587e-05
aF-0.00026056524802250296
aF0.005205632010723125
aF0.0012864594105398963
aF0.012026896767333033
aF0.007236314188258154
aF0.007628690279365541
aF0.030235654517132577
aF0.036182649191347005
aF0.009020487766312845
aF0.02574275857317223
aF0.07016157771102229
aF0.053090204490764334
aF-0.06108843385172627
aF0.037026578975294315
aF0.003089391511862954
aF0.023042737514261814
aF0.09518343748474403
aF0.01253982875934839
aF0.10827158306346346
aF0.06208112762745238
aF-0.00498678724402565
aF0.030498685459499176
aF0.00151908134966086
aF-0.0008372719436940882
aF-0.0182953987969059
aF-0.13123116036604388
aF-0.003683521068044732
aF0.0026438078020219443
aF0.14133291736173215
asI10
(lp12
F-0.04877804205178121
aF-0.04247103502573346
aF-0.10040111087125628
aF-0.008351504473952349
aF-0.09018831692443684
aF-0.01847033601735331
aF0.009988306173718606
aF-0.03341693312390492
aF0.062359853231004334
aF-0.04815587650104717
aF-0.015343378559261553
aF-0.019156063262217526
aF-0.000967327009914353
aF-0.030841439686382095
aF-3.0130345174841412e-05
aF-0.004810328314664493
aF-0.007600184686325554
aF-0.007715394866001382
aF0.0010569262817874132
aF-0.003640377987792058
aF0.0018153093102153818
aF-0.0068743884454602715
aF0.0018254012641715127
aF-0.03317680547697409
aF0.10357726471702537
aF-0.00930478210219222
aF0.006742924335698442
aF-0.005842483784417165
aF0.0031691374026141636
aF0.0026520655215115864
aF0.01877067454870132
aF0.002750764596613902
aF-0.00040819945903115
aF0.033721439402790515
aF0.031345465176450454
aF0.0020810131347090664
aF0.02852722634822835
aF0.07247293594878369
aF0.05268721395718492
aF-0.058319529628756625
aF0.035749305111904044
aF-0.0017865415345259808
aF0.026068469411457608
aF0.09118116760354042
aF0.016175975993880452
aF0.11015251697535745
aF0.06360153376516726
aF-0.005627575212118808
aF0.028589824254313174
aF-0.0048114242466665985
aF0.0004890697103430354
aF-0.009411243160943395
aF-0.13075322877681986
aF0.000791602153362916
aF0.0035328429100706417
aF0.13995120556181131
asI11
(lp13
F-0.048365065791313444
aF-0.04288149566442704
aF-0.10401956796653006
aF-0.0023594953633562315
aF-0.08999896571359065
aF-0.016478887268734862
aF0.008003229392818258
aF-0.03640067681636814
aF0.06496074487303637
aF-0.051736410760636356
aF-0.011420726642292035
aF-0.024887804795442905
aF0.007229860587674921
aF-0.027313470882776685
aF0.003221170203788885
aF-0.005665949222994188
aF-0.004532524564461456
aF-0.015292552024182667
aF0.004931754523601052
aF-0.0051957953093203346
aF0.004571349341207249
aF-0.0019605353383585944
aF0.0036644074631685
aF-0.02973426954632797
aF0.09609514954427327
aF-0.005523713248139651
aF0.0006533684684702617
aF-0.003915433280873888
aF0.006092324886218812
aF-0.002510095095487551
aF0.016263304713487668
aF0.009518150575633476
aF0.00879958482783491
aF0.030039806014044903
aF0.03239956906357542
aF0.005248896811977566
aF0.02554645832465604
aF0.06888075878555845
aF0.056726626621965676
aF-0.05479285843685304
aF0.03447830435867592
aF0.0011644070744510676
aF0.028146632486470962
aF0.09353894988905471
aF0.011331622896089806
aF0.11289498773088721
aF0.06015398367716462
aF-0.00259180293940686
aF0.028551084011807754
aF0.0035295109495266765
aF0.0023857750872433602
aF-0.01684712257912698
aF-0.13226987626385595
aF0.00264799078809731
aF0.0003411685369415929
aF0.14060977322702575
asI12
(lp14
F-0.04704522249888284
aF-0.035482769882164374
aF-0.10379747166525456
aF-0.009995004120369189
aF-0.09516856442073823
aF-0.017885084116915317
aF0.001605868502278049
aF-0.03343924779320182
aF0.06283926084674901
aF-0.04764604833575644
aF-0.015165332805707055
aF-0.02787654268319516
aF0.00815801472742899
aF-0.029015552445981054
aF0.002580184929815376
aF-0.004168489803629386
aF-0.003656940792541141
aF-0.013358311502053088
aF0.0017847029231587608
aF-0.002656183279407204
aF0.0025575474853251506
aF-0.0042390795461799
aF0.004085147146130203
aF-0.03012349533494837
aF0.10341945784647504
aF-0.00848613305187777
aF0.005173534073759914
aF-0.006036737246916936
aF0.009808073561659976
aF-0.004614735172503425
aF0.015977032124567917
aF0.004487044688883531
aF0.008515362805479263
aF0.031885237943177894
aF0.02895127168491965
aF0.008740866177520921
aF0.023826516677795714
aF0.07293299164395493
aF0.058640127039847986
aF-0.05989005034057295
aF0.034000723975487916
aF-0.0012039486551297753
aF0.023901622833022853
aF0.09204648579146449
aF0.015870555004085695
aF0.11554984994077352
aF0.0603588465293411
aF-0.003672301455999845
aF0.036031341187463956
aF-0.0017112107920365161
aF-0.002722531475582599
aF-0.011217999480310006
aF-0.13336872214393009
aF0.00396008132614149
aF0.0008541326581892495
aF0.14189383742030956
asI13
(lp15
F-0.05214028143112698
aF-0.04587613751991607
aF-0.10096205478293924
aF-0.003926499079517489
aF-0.09142643516487603
aF-0.011322947269130992
aF0.006315808248684051
aF-0.035303284149920476
aF0.06595237105445186
aF-0.04850927578669549
aF-0.0172285829108361
aF-0.01921456689070956
aF0.0052187892333170555
aF-0.02329068935970731
aF0.0017661789583963015
aF-0.0017805768455685228
aF0.001717143901657903
aF-0.008151310441939792
aF0.005900774686389349
aF-0.006283851702166365
aF0.00631263565590826
aF-0.005533611998753212
aF0.005489707090446089
aF-0.03171245190892375
aF0.09505583084236865
aF-0.00808059129379959
aF0.0018661078184234595
aF-0.0004754947169488882
aF0.008046694119714313
aF-0.00204681572567172
aF0.0205351366128383
aF0.006866790958225028
aF-0.00020243281182950022
aF0.036374442476850524
aF0.030905921692950426
aF0.003252423549066337
aF0.026887614822580484
aF0.07362251432175616
aF0.05127949446541284
aF-0.05937765948959485
aF0.03861045715916507
aF0.006259818143256297
aF0.021528752469515886
aF0.09193121338254866
aF0.016773375236725705
aF0.11386315492616103
aF0.05803477451167774
aF-0.0030937317963581784
aF0.035655721256225244
aF-0.0044527002172396815
aF-0.004719587901817196
aF-0.00946026602082087
aF-0.1330351357921869
aF-0.004067918575490445
aF-0.003165262880585124
aF0.14163804091883125
asI14
(lp16
F-0.045898965942527604
aF-0.03805875292944551
aF-0.09977429571657216
aF-0.006874519077408576
aF-0.0915319198063074
aF-0.01428367486375651
aF0.003274296091074099
aF-0.03959765145622471
aF0.06068871442344725
aF-0.051376322611092165
aF-0.012515588193741536
aF-0.024009784575143415
aF0.008288797618930007
aF-0.025527588057103826
aF0.0022956970740030695
aF-0.0047762203390589765
aF-0.0011387674941311214
aF-0.015486346629940974
aF0.004801247341770839
aF-0.0113336795364866
aF0.00085381634084295
aF-0.004431525615581036
aF0.0018956114760028686
aF-0.03399728574157545
aF0.09803230285492927
aF-0.009597251578322207
aF0.007609621404777986
aF-0.0048743217235273795
aF0.003357885850043786
aF0.00033696731770865125
aF0.021367439601669952
aF0.0022818675176967842
aF0.0011247261611924927
aF0.02950428619209192
aF0.02785112830503484
aF0.005046368851524303
aF0.021382609824937393
aF0.07109196557448953
aF0.05152379858654199
aF-0.05481987481194622
aF0.03543154438213067
aF0.002989107976746788
aF0.024094153769506254
aF0.09089182219502363
aF0.012331418057462792
aF0.10710239003076333
aF0.06400961342501225
aF-0.006598670764222221
aF0.03468216785940785
aF0.004003257233497871
aF0.003919561298567659
aF-0.00938520413782936
aF-0.13001786895753054
aF0.004623800481459962
aF-0.004973348407077879
aF0.13787705482213783
asI15
(lp17
F-0.04627035513520918
aF-0.03728898758265548
aF-0.10373872015014417
aF-0.009281762703895828
aF-0.09391102102630434
aF-0.016847623116360313
aF0.0016453128066901566
aF-0.03769727720735178
aF0.06426274726345531
aF-0.04752351563058212
aF-0.00925526774596906
aF-0.02771047209441559
aF0.008048490997802304
aF-0.02816161781037458
aF0.0036156200147810505
aF-0.0036223173697333055
aF-0.004978146324665471
aF-0.010598913925447904
aF0.002566452357586451
aF-0.01183054914372676
aF0.0011792703252006293
aF-0.000595307939677101
aF0.006035486173434247
aF-0.028170691699917347
aF0.09502858723193908
aF-0.008514781483182894
aF0.0015947604556716634
aF0.0003831316617092017
aF0.009089098195237368
aF-0.0036213984027552793
aF0.015960229211547893
aF0.005261106363629616
aF0.00461572896922679
aF0.032671144586566316
aF0.03431348480901589
aF0.006056494456107776
aF0.028903829195582466
aF0.07690745817504369
aF0.058692086564550806
aF-0.05577575768751238
aF0.04147067347223956
aF-0.0015358260177868181
aF0.021851961264568925
aF0.09489329589196685
aF0.017641426478110615
aF0.10971415963986658
aF0.0636298234379911
aF-0.0060526373889132085
aF0.03193512145763375
aF-0.002940664147086838
aF0.00029613416563006536
aF-0.014115348563862292
aF-0.1309569748120901
aF-0.003608250454522699
aF0.004073560818328523
aF0.14086308226916314
asI16
(lp18
F-0.04922083274994778
aF-0.04106162412240996
aF-0.10082535731620751
aF-0.010272280871061999
aF-0.09304093732810592
aF-0.01307732877869962
aF0.0015315210332549835
aF-0.03516296750712721
aF0.062422507632137886
aF-0.0542909031786941
aF-0.010919505176252467
aF-0.019157193554013154
aF0.0073006195163262885
aF-0.02913770515849221
aF-0.001411367254010398
aF-0.007055116789278784
aF-0.007936935530187246
aF-0.016300144813625073
aF0.005183313579890039
aF-0.011039456236749838
aF0.006138668268767018
aF-0.005652726268775598
aF0.0032981743282598777
aF-0.0328858589393649
aF0.1020563844015862
aF-0.006395326099574682
aF0.004771372651115379
aF-0.0042047752762477625
aF0.009394518089483704
aF0.004827891406749673
aF0.011991300855744052
aF0.008151198018819413
aF3.4572979321847744e-05
aF0.033932322357800825
aF0.03164779307730821
aF0.0035147143694352068
aF0.02266725623291664
aF0.07702870496377129
aF0.06045099350227025
aF-0.06270883419077211
aF0.03663882171055736
aF7.496681448990659e-05
aF0.027341205138120328
aF0.08859612295919528
aF0.019525381811187396
aF0.11579301517678194
aF0.06019383954597769
aF-0.0018197376506590359
aF0.03528397418015392
aF-0.0028771141054019533
aF0.0037598674357633677
aF-0.013947257932290947
aF-0.1348990414019572
aF0.0023865052108911224
aF0.004462223163070252
aF0.143140689737722
asI17
(lp19
F-0.047261528116894554
aF-0.038098725855105785
aF-0.10197641242680185
aF-0.00603247550697722
aF-0.09400818838033939
aF-0.015954093122445747
aF0.0031224813348727045
aF-0.0393861552099674
aF0.06887461557240146
aF-0.0468330484077537
aF-0.014301922993529993
aF-0.020561185000986595
aF0.00611873398699461
aF-0.024227569929924808
aF-0.003735749428042913
aF-0.004687392744118148
aF-0.006855278166814727
aF-0.01587796169807708
aF0.006607397070998547
aF-0.004062207472035777
aF0.0023825724291836907
aF-0.0049476334277205065
aF0.0036016839691721376
aF-0.027880680687306987
aF0.09742847920161073
aF-0.010696287809301243
aF0.0012507729935928714
aF-0.0010960705057871363
aF0.009802008391998582
aF0.00045839459682912913
aF0.015731920155605664
aF0.006981756258709751
aF0.008075519752178014
aF0.029683711715065453
aF0.036782715124797874
aF0.006626985523214649
aF0.02226811172352739
aF0.06950161108080422
aF0.05793086641018183
aF-0.05402432575786507
aF0.03666037126320542
aF0.004657994217382831
aF0.025555046987996696
aF0.09394730232785206
aF0.02150144733224797
aF0.10939241729786975
aF0.05579965707300327
aF-0.0013796332015527082
aF0.034123965868251095
aF0.0007818687779663259
aF-0.0005736751254565163
aF-0.011383482638863334
aF-0.13407637385670107
aF0.0010479261717439429
aF-0.00038597996715410176
aF0.14265150069475646
asI18
(lp20
F-0.052822021058996124
aF-0.04266533750147891
aF-0.10021839265335976
aF-0.0070463166267786545
aF-0.08931200139727424
aF-0.01333248618837593
aF0.00974363863571006
aF-0.034432884519176275
aF0.06045045935435211
aF-0.04620039695268679
aF-0.01604374244464013
aF-0.01952780406451119
aF0.004732342629528022
aF-0.029672865120162196
aF0.003800343891553216
aF-0.0001250724309561396
aF-0.005860352726546807
aF-0.012777941578531305
aF0.005525118092474965
aF-0.007498592326513468
aF0.006556493471139433
aF-0.001689535662104062
aF0.0008329004444222238
aF-0.035829235868900515
aF0.09978677104185939
aF-0.0075285438241962975
aF0.0009035736598518391
aF-0.007289709527454056
aF0.0047527271354172234
aF-0.00428008477576994
aF0.015801159288402863
aF0.0052338580923911235
aF0.004606135340177983
aF0.03369497300014419
aF0.036139818128573094
aF0.0016264257969633654
aF0.02873118687668613
aF0.06941390960688476
aF0.051196289323806404
aF-0.05764697946205168
aF0.04062328534728333
aF0.005491549938682389
aF0.024020631082162413
aF0.08895230905454546
aF0.020546837668865236
aF0.11092103955721531
aF0.05668216319752104
aF0.0009089561217793406
aF0.028522810842150245
aF0.0036810109074204797
aF-0.0010450262191638807
aF-0.013898283833396908
aF-0.13137942340277783
aF0.002058325906631095
aF0.003361925481516752
aF0.1342372993528601
asI19
(lp21
F-0.05247885973013853
aF-0.038361177216566254
aF-0.10226301883760357
aF-0.008294499102544338
aF-0.08743688094092855
aF-0.012375915947802922
aF0.004696144615432437
aF-0.034308014657320786
aF0.06482813661870042
aF-0.051550621745221036
aF-0.0154418041661714
aF-0.02814283397879283
aF-0.0007395372889826734
aF-0.02426382620785025
aF0.00026558436835533785
aF-0.0013025891253874073
aF0.001626624507257747
aF-0.00800946415912667
aF0.002431933154704154
aF-0.005991902152388075
aF0.007592393640937775
aF-0.006806639872653246
aF0.007750197895720964
aF-0.03428247518644961
aF0.09871410393554236
aF-0.008833613943393699
aF0.008476814283123468
aF-0.006921513374839117
aF0.007423789087949999
aF-0.0021720682352744936
aF0.016149852695952576
aF0.008786889055504022
aF0.005528622446140873
aF0.030456603941431883
aF0.030147709333535812
aF0.00669351135211118
aF0.028104380462973397
aF0.07138913636089479
aF0.05138239535497381
aF-0.057629740749114915
aF0.03610921868781
aF0.0061547779684905275
aF0.028832838970477687
aF0.08968588479007951
aF0.013313051983897775
aF0.10930002156798249
aF0.05743296864048798
aF1.3960375294990473e-05
aF0.036555214807433845
aF-5.5835461767075325e-05
aF-0.004403363347588805
aF-0.010210818166029815
aF-0.1313537882610954
aF0.004483708253216989
aF0.0017353699582117387
aF0.1437811639028618
asI20
(lp22
F-0.0494876849840558
aF-0.0460321671856756
aF-0.09967068173468133
aF-0.00819994049318112
aF-0.09501162025006148
aF-0.013105177894967538
aF0.008297168089598812
aF-0.03624976855603841
aF0.06968414575337435
aF-0.05215511991404673
aF-0.015721100712196175
aF-0.02299584062079225
aF0.005417211290195854
aF-0.02708580320256913
aF-0.0017412288020393419
aF-0.004385141376133569
aF0.0014965546969441116
aF-0.014317699203964888
aF0.007338201737377723
aF-0.0036210337437694003
aF0.009231738696556299
aF-0.0011847083701113613
aF0.008996310268193811
aF-0.028677859369808475
aF0.096892009131254
aF-0.004001117868608542
aF0.002555438192855036
aF-0.0063902908834819645
aF0.00665884777910923
aF-0.0031229676803278842
aF0.014881164019421288
aF0.0038822491120908795
aF0.0012918838600020843
aF0.03704544509949176
aF0.030043043954225454
aF0.004623412604509096
aF0.03040013809952866
aF0.07721870330397372
aF0.05617165121592206
aF-0.0554991686490989
aF0.04346613766751655
aF0.007197690333026025
aF0.026046607423341063
aF0.08590567022951758
aF0.016989720044249187
aF0.10930523765790057
aF0.063962193773963
aF-0.0025055340000072197
aF0.036079160231783605
aF-0.0014099988489150318
aF-0.0026494297029063564
aF-0.014557366368410847
aF-0.1344241634071336
aF-0.0029072756166300807
aF-0.0010890085508492497
aF0.1442667731891375
asI21
(lp23
F-0.05070299801671414
aF-0.03960985816360798
aF-0.10271936086447733
aF-0.009796942642836537
aF-0.08930851155667803
aF-0.01626024549055536
aF0.00911682317488322
aF-0.03952531914580621
aF0.0648529444237369
aF-0.047089382120407995
aF-0.01499916779061916
aF-0.019068017746526073
aF0.0002355573369616461
aF-0.028100393824040375
aF0.001831823254912326
aF-0.004367428115482063
aF-0.00648507220584258
aF-0.010285987842187209
aF-0.0009879430188091513
aF-0.005282499918567316
aF0.008427153775920243
aF-0.0020845775304757443
aF0.002759218531853897
aF-0.03273582122559924
aF0.10270509246613807
aF-0.0028031917498383577
aF0.006247253493318541
aF-0.004339293557284489
aF0.004564925254093026
aF-4.9273035317332576e-05
aF0.01767171421212687
aF0.0010533520592981426
aF0.004963218986178908
aF0.03983603348647742
aF0.0318814122732368
aF0.005673915265325489
aF0.03019390944472493
aF0.07786638391014536
aF0.056184196817773195
aF-0.06139018382037992
aF0.034797248053761005
aF0.00036600272111362783
aF0.024365974084438108
aF0.09179121148241849
aF0.01911524219223195
aF0.10744601040768693
aF0.06223998980794624
aF-0.001822523385377738
aF0.03246355981148756
aF-0.003662532086161714
aF0.00327088917330582
aF-0.015754898845291687
aF-0.13051845606403345
aF0.0010295784742545744
aF0.0044679983566298775
aF0.13852612147994364
asI22
(lp24
F-0.04700215065582948
aF-0.03832588433932178
aF-0.10173044852053066
aF-0.005957523885490649
aF-0.08838413024504928
aF-0.013048402347139726
aF0.007068024483958
aF-0.03374316841316628
aF0.06786187641393529
aF-0.05448557592126797
aF-0.01198659186619065
aF-0.018867117730514155
aF0.00844037523701236
aF-0.03115970291712406
aF0.0015460378734975877
aF-0.0011057061369690881
aF0.0012734268371683765
aF-0.016940198925594303
aF0.005602103866581761
aF-0.010043441720396956
aF0.009359951942596208
aF-0.0042692396597010076
aF0.00361478973752029
aF-0.03364931259744985
aF0.09939290186012359
aF-0.009037832878937021
aF0.006884461726836753
aF0.0016624596419652295
aF0.012398760801513021
aF-0.004935865536405334
aF0.018177933838307937
aF0.0032177172832351187
aF0.0070986784718967974
aF0.03224175088306938
aF0.027986498642731714
aF0.004261712407533541
aF0.026036733381091616
aF0.07074082118997323
aF0.05909835742660779
aF-0.061860571288924464
aF0.039744500940622575
aF0.0034361891431271556
aF0.02315187150323434
aF0.09346045504493476
aF0.01902368780101443
aF0.1068129170410727
aF0.05567338123950579
aF-0.0010059763899962625
aF0.03544003784151099
aF-0.0036818099847086756
aF-0.0010791789507355173
aF-0.013692059472974355
aF-0.13352143322046478
aF0.0036176508493539488
aF0.004264175032526465
aF0.14155295114527366
asI23
(lp25
F-0.049885082163341844
aF-0.03694417572437487
aF-0.09984668857590163
aF-0.00944897061665593
aF-0.09259175694605465
aF-0.0146732352216196
aF0.0016697141903484842
aF-0.03891084304106994
aF0.06662955436014649
aF-0.054434777908581436
aF-0.01576371392351948
aF-0.020801367722640816
aF0.0013344867186949351
aF-0.025592144502654634
aF-0.0033821784393584225
aF-0.0028964801852276716
aF0.0011056232269799268
aF-0.015314549086296925
aF0.006284784703552775
aF-0.011880773041608067
aF0.006753816018455484
aF-0.002498737380488821
aF0.0015240916827763394
aF-0.02839813437467224
aF0.10137013362875734
aF-0.008103537575882348
aF0.001521643066336191
aF-0.003078780495350591
aF0.0033041986171935918
aF-0.003945877917404157
aF0.018416269580065477
aF0.009384405675243766
aF0.002595349181638686
aF0.034728283928033885
aF0.03616034996719846
aF0.004651827174485793
aF0.021383237966206392
aF0.07329106313920075
aF0.05466143775770011
aF-0.05594416012072148
aF0.03691705325853038
aF0.003340431663442628
aF0.02442378453650464
aF0.0934921328505515
aF0.012194945547387474
aF0.11263102213045269
aF0.060523173024697036
aF-0.001494751013340436
aF0.028485809585683662
aF-0.0040396197251909675
aF0.0017204226887269159
aF-0.01449316276030527
aF-0.13402613170693625
aF-0.0005555466723284442
aF-0.0001494341367256069
aF0.14164936706597125
asI24
(lp26
F-0.0488337250628239
aF-0.03828715556064985
aF-0.10111189421466882
aF-0.002373251280070608
aF-0.09044782353016836
aF-0.014682744577438268
aF0.0021748289498667553
aF-0.040142257551974585
aF0.06888091738925782
aF-0.04832839668754523
aF-0.01585841887852745
aF-0.026908673029016658
aF-0.0009620518112068534
aF-0.031138641780449405
aF-0.0038287426484543145
aF-0.0026669929650716385
aF-0.0019197264403518117
aF-0.010295657377935813
aF0.0030151812371849644
aF-0.0035847424959000456
aF0.0036570939710116007
aF-0.006490507687438754
aF0.0033508935313915486
aF-0.031565968965577784
aF0.09607111170087565
aF-0.011776867763907243
aF0.0002009775364205836
aF0.0008042420135551582
aF0.007873477395324267
aF-0.004725204127565231
aF0.019489524674019564
aF0.009568501313826173
aF0.0009901249830326713
aF0.03685451327557917
aF0.02918596253554792
aF0.0038001770268178366
aF0.026222661899322864
aF0.07531333756078765
aF0.05959702825534421
aF-0.06251265765893496
aF0.03897263233226271
aF0.004924188284266235
aF0.027347884587387586
aF0.0890789817182079
aF0.016692405479786253
aF0.11509406617879844
aF0.06471122680685709
aF-0.0037350046105235997
aF0.031748985231961624
aF-0.000681995042230065
aF-0.004911566969923243
aF-0.013432277167228451
aF-0.13384538196702572
aF0.0034555958682385176
aF0.0013192857318759298
aF0.13891907108267432
asI25
(lp27
F-0.048404455294148885
aF-0.03982383594468119
aF-0.10359709010125322
aF-0.001809767995384008
aF-0.09511645208002248
aF-0.012616661874062728
aF0.004044127522362197
aF-0.04079069401763486
aF0.06535644620683466
aF-0.05045819873735126
aF-0.01364230490942765
aF-0.019070010596611748
aF0.0074412038265302995
aF-0.02368600727619989
aF-0.0027116159349968587
aF-0.004963560695231708
aF0.001076638388099283
aF-0.011410883149129816
aF0.0015519297143460628
aF-0.0038596492570623993
aF0.004485692706574322
aF-0.000869551058795952
aF0.010507068056317674
aF-0.03518666071564155
aF0.10302534908805748
aF-0.003514314094553857
aF0.008431835896131275
aF-0.008100365740028282
aF0.005172258075654463
aF0.005089237686343589
aF0.01453817612334914
aF0.004148987355509101
aF0.005804193416780214
aF0.03806410716935113
aF0.035365339043223164
aF0.005443349773774708
aF0.029433854863367425
aF0.07349673946163383
aF0.06038164984065769
aF-0.05482970318204801
aF0.03781903189285687
aF-0.0006704308206249897
aF0.02183803183813202
aF0.09205187049816844
aF0.012038453116647897
aF0.11466117360418732
aF0.060151461068667485
aF-0.0025201358481273944
aF0.030765928721027798
aF-0.0031937220730773918
aF-0.002937969120478263
aF-0.013353248816406336
aF-0.13530595280917218
aF0.0014098950537663358
aF-0.002820165799855955
aF0.138619657806511
asI26
(lp28
F-0.05185340653607336
aF-0.042799156647502834
aF-0.09951522704112752
aF-0.007046961889638168
aF-0.09051756477548596
aF-0.017612134000152123
aF0.006010414559803076
aF-0.04000175069105863
aF0.06432362700993305
aF-0.04834235989328504
aF-0.010317184201034611
aF-0.022326998091461096
aF0.001086336239108024
aF-0.023159181214135648
aF-0.0016896564056365837
aF-0.0016651333642889645
aF-0.0007019723175778435
aF-0.013087269510046648
aF-0.0014717275527071068
aF-0.006927343545270298
aF0.009509903580467572
aF-0.005352068485694167
aF0.009353645449245619
aF-0.03520709708598909
aF0.09611585391003859
aF-0.005953900757872488
aF0.003460864091583299
aF-0.005476138486927988
aF0.008249331811217257
aF-0.00244643238182446
aF0.012394393314068344
aF0.007205474896536844
aF-0.00013426681114281946
aF0.035372101053145207
aF0.037720820251854734
aF0.008594832593097972
aF0.025689972650681497
aF0.07026557377280673
aF0.053912689274353956
aF-0.05926546303421864
aF0.041980994166495436
aF-0.0006669393764163685
aF0.02577790123677627
aF0.09461823067034089
aF0.015166840693905882
aF0.11343097712517727
aF0.06092726140296031
aF-0.003998300410222433
aF0.030120755037984462
aF-0.003945726244856374
aF0.0022802699878373945
aF-0.008875705787996522
aF-0.1313541381978778
aF-0.00048394920403076587
aF-0.0006189749254227561
aF0.13694971977681195
asI27
(lp29
F-0.04614029635417943
aF-0.03672351571555689
aF-0.09959503350851485
aF-0.010114761517872526
aF-0.0936144727994325
aF-0.014013353504060463
aF0.007055727671664238
aF-0.033865000326580866
aF0.06500253035346684
aF-0.05389147783892021
aF-0.015241973284428587
aF-0.026756981639910065
aF-0.00025732706994921874
aF-0.023461635855087586
aF0.0012190688807235635
aF-0.0016041937105346889
aF-0.00290553259374566
aF-0.014807722406817202
aF-0.0005578734984030745
aF-0.008036318865310789
aF0.0013195511339116398
aF-0.004521596676048774
aF0.002742375888848601
aF-0.03337775918386602
aF0.09527830856231313
aF-0.011280330651095528
aF0.00838357914185728
aF-0.00473859281812497
aF0.003343964168719416
aF-0.0017401884926849733
aF0.01304591598701872
aF0.0076709138467562525
aF0.007619274868142485
aF0.030594322642235446
aF0.03528304698912609
aF0.006282781506408938
aF0.026303524198261447
aF0.06874499249883245
aF0.059561038449883016
aF-0.05462717761728665
aF0.04244265784599321
aF0.0076482111603920645
aF0.028103831063518443
aF0.09082001205170341
aF0.017996173819941876
aF0.11072684712064308
aF0.056258971736021755
aF-0.00679501802347521
aF0.03172679581111783
aF-0.004949363386487234
aF0.0019709327285079145
aF-0.010985301155782681
aF-0.1331710410547573
aF0.004349854744733992
aF-0.003796228409620964
aF0.14250526964881244
asI28
(lp30
F-0.04808823167277691
aF-0.04343678739629399
aF-0.09906561529457213
aF-0.004453958442088735
aF-0.09475088768622943
aF-0.009535118378368459
aF0.009604198536653789
aF-0.03462096430303992
aF0.06463479183942443
aF-0.05001715756738311
aF-0.014802117948694422
aF-0.022519832154526884
aF0.004016501559459834
aF-0.02307437985152422
aF-0.0011285312957044257
aF0.0012553734912290524
aF-0.005297521147121142
aF-0.013445188910101057
aF0.005715488057664525
aF-0.009892680368146457
aF0.0022726814060429223
aF-0.006234326200624545
aF0.0008974436915540841
aF-0.03665567870499255
aF0.1034848789240423
aF-0.010988533945640288
aF0.0004322742265665934
aF-0.0060593684331791044
aF0.008171109411827015
aF0.002875272278741131
aF0.02141622145596083
aF0.008788819808717499
aF0.008411468547417976
aF0.032432726961163214
aF0.028434769043005133
aF0.008751138296668287
aF0.023421794845797563
aF0.07514283405395904
aF0.059376510990097595
aF-0.05637643530950323
aF0.0433600563308941
aF0.007523754431560032
aF0.02146096739844939
aF0.08970773089892714
aF0.011701512305484656
aF0.10886262325165465
aF0.05951778482826342
aF-0.005778631929643424
aF0.03754194517554119
aF0.000283323459353928
aF0.0015498332874936027
aF-0.014579997520847189
aF-0.13365914593342057
aF-0.0009594595382081007
aF0.0022167656158313897
aF0.14343780457854136
asI29
(lp31
F-0.05387438001847019
aF-0.044800622123879065
aF-0.1000108716425488
aF-0.009980038292454163
aF-0.08990490273224859
aF-0.012465178016200812
aF0.008214664893090367
aF-0.03135037320432291
aF0.05996654497793917
aF-0.04986008934732102
aF-0.016971393448605623
aF-0.022946044760173884
aF0.0006184302707716246
aF-0.030768748433507687
aF-0.0005626403414825593
aF-0.007027614284091694
aF0.0006299892149391461
aF-0.009035428011569875
aF0.0025639805352059763
aF-0.011069583843437274
aF0.0017340724776557673
aF-0.003773019930673536
aF0.00482255843584365
aF-0.03095713548715136
aF0.09468916469447365
aF-0.009201869777296824
aF0.005560021992594577
aF-0.00528701293651422
aF0.006933480183364533
aF0.00447005888110134
aF0.013179990823362419
aF0.0002706430222320438
aF0.0007885180215798556
aF0.03646480659413317
aF0.03344002491255988
aF0.007547964996380007
aF0.020875156884649658
aF0.07468445987056893
aF0.058720504775246624
aF-0.057454303922777804
aF0.03484719000821216
aF0.0044652517796938
aF0.02166857550872817
aF0.08960846991813402
aF0.015990576734354178
aF0.11085180777358562
aF0.0582015553366517
aF0.0010946261687360716
aF0.029613290654832227
aF-0.0023801884180409327
aF-0.002560759076642705
aF-0.013312350853981822
aF-0.13223982353126773
aF-0.002296769423387761
aF-9.814401740110501e-05
aF0.13494810316297062
asI30
(lp32
F-0.05142644113117939
aF-0.04362313153561795
aF-0.101997857259135
aF-0.003488784824777025
aF-0.0924057788230224
aF-0.013185769461340252
aF0.0035515085980837463
aF-0.033181907216852206
aF0.06921344553341689
aF-0.0503856179667231
aF-0.009091682457071351
aF-0.022448500430981535
aF0.0051155760665542085
aF-0.028391041108294702
aF0.003961226322996003
aF-0.005666980535375169
aF-0.007371338294946593
aF-0.011820434097645372
aF0.005556232166627536
aF-0.004194551893896442
aF0.008847658113868204
aF-0.008320014708649216
aF0.0076317155343102825
aF-0.03352274258163123
aF0.09660139881452066
aF-0.0046245122137712445
aF0.0023618964042984403
aF-0.004906440393929547
aF0.0026611880641354523
aF-0.001404537819477639
aF0.01913636852352386
aF0.009351842552943765
aF0.0032723652886462685
aF0.03946436420510911
aF0.038329532498584326
aF0.00579328301930949
aF0.02128838565244147
aF0.07578249622015545
aF0.05861818647793594
aF-0.055025714767787066
aF0.04227448948631975
aF0.007455899002760504
aF0.029907525963132918
aF0.0870157181543611
aF0.013945873244963918
aF0.11048961857959014
aF0.05684080521106615
aF-0.00456074614793519
aF0.03644674656316787
aF0.004529074965071622
aF0.003631857580055469
aF-0.011589795814909352
aF-0.13281735877204182
aF-0.0008987434903008483
aF0.00042441858931162047
aF0.14403608582965252
asI31
(lp33
F-0.04971234658499141
aF-0.03731411595413681
aF-0.10200534543759888
aF-0.01017798196998699
aF-0.09532363495294222
aF-0.009533583170216646
aF0.0016528621666436032
aF-0.034351914463879904
aF0.06165355539014916
aF-0.04793481288352075
aF-0.013400274902132659
aF-0.025488573457910113
aF0.005989861798373924
aF-0.026290916088834437
aF-0.0034474873340429547
aF-0.002131861598764415
aF-0.002200361919161325
aF-0.017074420198939753
aF0.0037380934783549542
aF-0.005213293563763196
aF0.0076684802379934905
aF-0.006698762647046239
aF0.006212961187761684
aF-0.03349985663071948
aF0.0986245587515538
aF-0.006299170795518985
aF0.004019300339998538
aF-0.001769428497613451
aF0.00478530892448603
aF0.004193055492578074
aF0.020477666330361
aF0.006556808095267834
aF0.0013281847692643096
aF0.0319920023977143
aF0.037471704154247755
aF0.007393575749911702
aF0.02240935793101856
aF0.07768891133386774
aF0.05284132295906342
aF-0.056929864411698124
aF0.03534240954842996
aF0.005026925326982193
aF0.02925370945012866
aF0.09033873001917304
aF0.01720350719617858
aF0.1096454116079769
aF0.06223186632201291
aF-0.0005268565837326791
aF0.03229293456900555
aF-0.003576788579097606
aF-0.004186991184674276
aF-0.013268410953935349
aF-0.1327832127839824
aF-0.00040769359501600764
aF-0.0005411753987517476
aF0.13656585789065498
asI32
(lp34
F-0.050244583245739306
aF-0.03732494224020569
aF-0.1023302353689736
aF-0.004840520986280039
aF-0.09041844447063918
aF-0.009600797066505866
aF0.009320785041087779
aF-0.03857638351375343
aF0.06295825148417172
aF-0.051844042496920435
aF-0.011098278446406526
aF-0.02489301111411522
aF0.005572829119307963
aF-0.023947417755796993
aF-0.0017034700473676616
aF-0.00502927098047025
aF-0.0002769813138404458
aF-0.01632667302467785
aF-0.001880733463785884
aF-0.008716855788411387
aF0.006870255236969202
aF-0.009518006277591924
aF0.007088502094976624
aF-0.030721107712036802
aF0.10417214907555464
aF-0.005184032820423702
aF0.003734839191236883
aF-0.0061856334827465245
aF0.00537066167242544
aF-0.002861263304055681
aF0.016276385676054078
aF0.009621933139569966
aF0.0066355455823343375
aF0.03666259985664319
aF0.03604488774767464
aF0.004447947071325833
aF0.027957136612303105
aF0.07047187227619675
aF0.05130071471915613
aF-0.05808977755418762
aF0.03954137704853496
aF0.0011501847915916267
aF0.02063695948906769
aF0.09490636914305954
aF0.016174468952058898
aF0.10932953982385035
aF0.057344262537479804
aF-0.00017114706177379996
aF0.036462893287311865
aF0.002357326303141606
aF-0.004986498511583829
aF-0.013021691115077769
aF-0.13293675541106317
aF-0.00440404118163191
aF0.0049288129606545475
aF0.1396524385703532
asI33
(lp35
F-0.04996986593345186
aF-0.042671572015129604
aF-0.10272310542495545
aF-0.00249768656397346
aF-0.09086037580635241
aF-0.0187688460159521
aF0.003682786735438207
aF-0.04050627465663492
aF0.06513246767429404
aF-0.04803177240552267
aF-0.013664361358730661
aF-0.02163199937453811
aF-0.000526594460588568
aF-0.03037431212252503
aF-0.0027430999429435897
aF0.0007648755882097675
aF-0.0033550466686090483
aF-0.008010638325571483
aF0.0005507416239001261
aF-0.006053778008983222
aF0.004679318103883031
aF-0.00687416117962481
aF0.008382156026294788
aF-0.028809262170548237
aF0.10521406307395281
aF-0.006745945267923398
aF0.00013794085224367182
aF-0.005264962282461149
aF0.011540469835162296
aF0.0032174997641609185
aF0.01199871234701242
aF0.0031056680581875175
aF0.003548615113974445
aF0.033728317806483235
aF0.029317347947483547
aF0.008505106339788477
aF0.03032340987020839
aF0.07750218022495531
aF0.05906301696175569
aF-0.057334740108328015
aF0.03960657656574361
aF0.007711063154039905
aF0.02952730356046636
aF0.09051738091833404
aF0.014154192790340733
aF0.11407161056434748
aF0.05857556959315458
aF-0.0061841675664644205
aF0.03495315711118533
aF-0.0017910460121325288
aF-0.0026185812011201093
aF-0.009075480531811626
aF-0.13272200235019452
aF0.0007369734386954296
aF-0.002512255233464483
aF0.13803693250430712
asI34
(lp36
F-0.05243021707275998
aF-0.04227382535547976
aF-0.09837387894207823
aF-0.010540645878468403
aF-0.09437134763681858
aF-0.013347202693407048
aF0.007524473475114836
aF-0.03733129291512814
aF0.06789621838748938
aF-0.04810324043750029
aF-0.011306802437283109
aF-0.02596225997038322
aF0.004770091586292524
aF-0.02946169549475862
aF-0.004379818561006507
aF-0.0006701025698546126
aF0.0016531295061727037
aF-0.009297538893799053
aF0.007279347205842845
aF-0.0039664934070707415
aF0.00487166132253235
aF-0.0072902534742229005
aF0.0054032267614993156
aF-0.02916382460199283
aF0.1006727844059851
aF-0.009424876496557546
aF-0.0005427121543818849
aF-0.0072344258045378505
aF0.0027162525955054923
aF-0.0006487105849025371
aF0.0161765245625173
aF0.0037019705428410193
aF0.001678342665306141
aF0.033531917498414054
aF0.03210092710532847
aF0.007481773341981114
aF0.024636539044225504
aF0.06810359023628924
aF0.05120574286077298
aF-0.06068580067227556
aF0.03508065256891677
aF0.005634370376613384
aF0.02392315882439301
aF0.08979418150615948
aF0.01552555743068848
aF0.11353554741220782
aF0.06046129121489483
aF-0.0019863291711177036
aF0.0347734114738139
aF0.0032171481727624874
aF-0.0007971232877022527
aF-0.01756692188567277
aF-0.13057543274588007
aF0.002874489192465648
aF0.0035611192487274446
aF0.13899023495968377
asI35
(lp37
F-0.04742386558226354
aF-0.03591356312327158
aF-0.10310955332106733
aF-0.007760589245245585
aF-0.09361038108112538
aF-0.013378910551779732
aF0.0018401934139931316
aF-0.0315865703927065
aF0.06380031828636859
aF-0.04492894107603059
aF-0.009494436996379989
aF-0.018472251380657084
aF0.008261209822973776
aF-0.03060702616323425
aF0.0016892122397422213
aF-0.005946843208435989
aF-0.007423900259799925
aF-0.014861888564027984
aF0.007492063669034345
aF-0.008405611695354254
aF0.0025876397992693626
aF-0.009274838793388517
aF0.007731019558666134
aF-0.031729303418315175
aF0.10120774944102752
aF-0.012459932283469475
aF0.005933739603495857
aF-0.005973925419366156
aF0.00298795499270582
aF0.0015189221385255144
aF0.01480620144897124
aF0.005100593595127154
aF0.00902931073286012
aF0.03928807187154998
aF0.0335512127513829
aF0.000224684055431717
aF0.030359088906992904
aF0.07089620366562373
aF0.055736159400233375
aF-0.05270209660646527
aF0.041562587640066664
aF-0.002058513388448084
aF0.028131209895626726
aF0.0945538852961352
aF0.015485728569319908
aF0.10930289146421247
aF0.05543096063874048
aF-0.005849151769447586
aF0.02903303554154503
aF0.004986175669068046
aF-0.0037627668315158434
aF-0.012057819319268566
aF-0.1299059711058479
aF0.002426127556729072
aF-0.0031906284599182047
aF0.14073154060754087
asI36
(lp38
F-0.05053510513622808
aF-0.04070728976520525
aF-0.10035283020572565
aF-0.009362642203998836
aF-0.09374113034351207
aF-0.015972380190135374
aF0.009258751454453495
aF-0.03170459915526753
aF0.06958861968097554
aF-0.05136070241652155
aF-0.009347554969438695
aF-0.025470177239620164
aF0.0075727363683625514
aF-0.024072878514714947
aF0.003823431141383561
aF-0.003131428483376437
aF0.0018141142365661208
aF-0.009765877682689045
aF0.0014647575483140438
aF-0.005737615955011988
aF0.0011816229681181685
aF-0.001902229579824121
aF0.007937494492200896
aF-0.034162523769166245
aF0.09621961411998574
aF-0.011626927343749574
aF0.005634800328640874
aF0.000995075777447875
aF0.007821638609855762
aF-7.563351168365069e-05
aF0.015485654645702767
aF0.0053182897103162645
aF0.0037093610858090677
aF0.02990885363178951
aF0.030962025866024825
aF0.0044904049281392884
aF0.02963911400945789
aF0.07356254613412198
aF0.057567699628459625
aF-0.061848801964029594
aF0.03580151783423942
aF0.0027921946520726884
aF0.02110002023173628
aF0.08849235123397411
aF0.013533024642431063
aF0.10890967528320676
aF0.058142250334448274
aF8.259291570840588e-05
aF0.03412972181336441
aF0.004774926661690164
aF0.0022541973682391214
aF-0.01552566662058099
aF-0.13306127382018273
aF0.002345288690055528
aF-0.004396384762678531
aF0.13991141254156736
asI37
(lp39
F-0.05341658940742741
aF-0.04222594889055676
aF-0.10287119865677145
aF-0.003843384120590209
aF-0.09451846582485299
aF-0.00995251382294684
aF0.005337314926588642
aF-0.03532489860199179
aF0.0681063828148875
aF-0.048828512576830185
aF-0.008976112717351088
aF-0.027596851000426373
aF0.004450910102012439
aF-0.025140732374422988
aF0.004299790604663736
aF-0.006639954024645308
aF-0.0069423563351725705
aF-0.011578227204773436
aF0.006810278087156231
aF-0.0026285633599255212
aF0.009642428151483537
aF-0.004250081090443967
aF0.004000965721779364
aF-0.028353764688929674
aF0.10364424379844028
aF-0.003686071562712226
aF0.0007998395291319217
aF0.0017621354038380196
aF0.011071532440188256
aF0.001028099336472132
aF0.01711117287346154
aF0.0008855989073401572
aF0.0034375852894092053
aF0.030397977692217703
aF0.03401548818719051
aF0.0038333615523052406
aF0.02937111871209421
aF0.07410962089748926
aF0.053975398455829
aF-0.058017042095870726
aF0.036559095569371446
aF0.005840369015608884
aF0.02812893305515146
aF0.08866537423467782
aF0.01747128247821578
aF0.11186140152105592
aF0.06337484421867765
aF-0.0006235477788386528
aF0.03097663771628061
aF0.004894255313201417
aF-0.0015552764892608432
aF-0.01598100495215229
aF-0.13124973961900271
aF0.0006003434380824254
aF-0.0015809981291830314
aF0.13734374430599025
asI38
(lp40
F-0.04775159539221833
aF-0.042094702968423645
aF-0.10290261226442497
aF-0.007592394344735325
aF-0.09521846489805523
aF-0.009536876034967796
aF0.003631129256857756
aF-0.03781492124669432
aF0.06466446531834759
aF-0.05017246755665602
aF-0.014621011403627251
aF-0.019251534014121684
aF0.004635603377437516
aF-0.030576871036668205
aF0.005377508698593957
aF0.00033193883658794057
aF-0.00012432435952714995
aF-0.015562420599892492
aF-0.0009985111014980041
aF-0.003493472310519735
aF0.008989334729542912
aF-0.00796989654999502
aF0.0012846963636336981
aF-0.028699249771027616
aF0.10362233871096947
aF-0.00815443332200986
aF0.0035008046655998154
aF0.001389285789669774
aF0.011360863134433722
aF0.004499613845551667
aF0.018204663673528833
aF0.004195900855045392
aF0.0016442218154724385
aF0.03674512220281858
aF0.03385340521449062
aF0.0008483496314154689
aF0.02104818056988279
aF0.07784622949955783
aF0.058946579197633825
aF-0.05299196699564459
aF0.034087766341142585
aF0.003437750762191401
aF0.02132030785144578
aF0.0865008429029992
aF0.011240303630739235
aF0.11142248459024046
aF0.06101792902327889
aF-0.004967785679761526
aF0.03726009994180503
aF0.004283073098458445
aF-0.002609290528856413
aF-0.01729032249503967
aF-0.13388734573735944
aF-0.004144569536778746
aF0.0019133726015502295
aF0.14370491667767615
asI39
(lp41
F-0.05282200845530998
aF-0.036624130956254844
aF-0.10140184815073335
aF-0.005814437050454958
aF-0.09179975440109667
aF-0.017426616222252368
aF0.0058039530717186386
aF-0.03275982656568491
aF0.06767861576974041
aF-0.04916666524166556
aF-0.015468858260141905
aF-0.02633567581617791
aF0.004646040362614618
aF-0.02898012218944976
aF-0.0008181395938589571
aF0.0007027241907223717
aF0.0014702217838350124
aF-0.014325045951956862
aF0.002674962335446358
aF-0.010696235027076048
aF0.005916086422953991
aF-0.009624725762953399
aF0.009588046427712
aF-0.034772091749674695
aF0.10222800660405362
aF-0.005575541726817222
aF0.0031444883230452502
aF-0.006815156247721714
aF0.009978504225982029
aF0.0020041638820252326
aF0.012855490696429004
aF0.005646981904983795
aF0.008347125658759174
aF0.038952793553496796
aF0.037638496966705376
aF0.009748177197627267
aF0.029332717243880486
aF0.07421365350081066
aF0.05507437849498716
aF-0.05724690390426237
aF0.04313299974368022
aF0.0034635460016025944
aF0.02982561023926697
aF0.09361524324918864
aF0.01741831734106937
aF0.11131617007640598
aF0.05663712413020185
aF0.000621018660196287
aF0.02916773604101945
aF-0.001924085748200981
aF7.589350704110153e-05
aF-0.018628069171232234
aF-0.1321719279768643
aF0.00016689117611574103
aF0.0008389310676436624
aF0.13608877712568643
asI40
(lp42
F-0.04964710185224526
aF-0.03973286892162749
aF-0.10356084514541557
aF-0.005514635465838273
aF-0.09586940219469604
aF-0.016898297289705513
aF0.010241512379290467
aF-0.03271020961096563
aF0.06932068749550176
aF-0.05324800761706352
aF-0.012845035922122137
aF-0.020102730017573008
aF0.007493014718380317
aF-0.027423545219707923
aF-0.00030554259473951925
aF-0.006096675874812125
aF-0.007913607041010554
aF-0.012125532114088063
aF0.0014061679207840784
aF-0.009154037672592834
aF0.007243577648313365
aF-0.0025063921064963253
aF0.008054850799236716
aF-0.03011758979916134
aF0.10188325119027795
aF-0.003231038025972917
aF0.005935978854507997
aF-0.004789568295956139
aF0.005789960445761407
aF-0.003285147042797052
aF0.020860684192403053
aF0.0007870394659975521
aF0.008227809811916904
aF0.03963438750171339
aF0.03262499943948513
aF0.0044654218000521415
aF0.022096480642986353
aF0.07841624104486512
aF0.05991595825758187
aF-0.05937709386616954
aF0.040935272745057844
aF0.006098344178123429
aF0.023818071260510366
aF0.08735705912482211
aF0.01239308397386107
aF0.11151455429300056
aF0.0642234708093668
aF-0.002003124209186641
aF0.03215488233685144
aF0.003340369621742828
aF0.00017823564471192046
aF-0.01314892105502646
aF-0.13214910666337118
aF-0.0010365142006847938
aF0.0009815404088581781
aF0.1403013211160039
asI41
(lp43
F-0.05104926967250113
aF-0.035948616607019354
aF-0.10456314318258447
aF-0.009086305405522072
aF-0.09094394795952569
aF-0.015230310780889676
aF0.0013064299675247517
aF-0.036712021550006524
aF0.06867050797547693
aF-0.04799579163610689
aF-0.01388346890468853
aF-0.027359970817460597
aF-0.0006364864750331146
aF-0.03064682047977443
aF0.002701837920374403
aF-0.0010823307621887544
aF-0.00552350266293186
aF-0.012927616476826206
aF0.006762277612172358
aF-0.010116443025702701
aF0.005690745110601694
aF-0.008751799963540346
aF0.0018520221902529998
aF-0.028617380262160524
aF0.09874457662051563
aF-0.007492320278460972
aF0.002355505909834236
aF0.0009845677206651163
aF0.009417915539486352
aF-0.0004880318474765467
aF0.018304290670939395
aF0.007000822492845407
aF0.003532157222521966
aF0.03906174269070489
aF0.028857250231454926
aF0.00769911998154727
aF0.029677186634216497
aF0.07238472968996927
aF0.05680340331255973
aF-0.05431106191088648
aF0.03765177516925651
aF0.007819631518023637
aF0.030180895895080363
aF0.09598579647808153
aF0.013643590422020456
aF0.11565792003146211
aF0.06284372189243098
aF-0.00432658389033853
aF0.032231144209083795
aF0.00019132140830522643
aF0.003876096963200668
aF-0.0115936166604329
aF-0.13292811205077398
aF-0.00400421334073147
aF0.004448427805075364
aF0.1373906088115655
asI42
(lp44
F-0.05049027896313561
aF-0.03810704718410488
aF-0.09983954774006881
aF-0.0040848499352433894
aF-0.09192430542920198
aF-0.010749982790732866
aF0.008977187879931965
aF-0.03207736954167913
aF0.06228010131100194
aF-0.0546989124850281
aF-0.008502160278523435
aF-0.023328269504920705
aF0.0017530274151720654
aF-0.02608732105126204
aF0.0020564888881838012
aF-0.0036793596264241995
aF-0.0033047310710540606
aF-0.011662769874582708
aF0.007178294199807059
aF-0.008489994448127949
aF0.005143744761779227
aF-0.001997699318360146
aF0.0015695167023288055
aF-0.03489113918185848
aF0.09550546132893861
aF-0.006050500883194674
aF0.006527331953048122
aF-1.5328797601624734e-05
aF0.004703835108000093
aF-0.0032245075774510207
aF0.015647573510529016
aF0.006156653795318996
aF0.007842351746213377
aF0.036493905927336645
aF0.030063389778088336
aF0.007072439527642902
aF0.021313913579893883
aF0.07242341770790392
aF0.05799366151726639
aF-0.061530407384221185
aF0.038064159381563906
aF-0.0013091687659038443
aF0.029695369024016968
aF0.09313103461208519
aF0.021030984754562106
aF0.10848502931002768
aF0.0571660102731113
aF-0.0002020499814206202
aF0.028157271427828395
aF0.0036964698931015497
aF0.002995178084452124
aF-0.017377527381276885
aF-0.1323010088778604
aF-0.004825483765313423
aF-0.0035928207533539955
aF0.13917049964012698
asI43
(lp45
F-0.05131667556877866
aF-0.04118557511340406
aF-0.10106349511169874
aF-0.007242958325231306
aF-0.08969686091549488
aF-0.010709949669023904
aF0.008677694582322535
aF-0.039631510534851276
aF0.06829032883535201
aF-0.050330370598547884
aF-0.015707916521849833
aF-0.01980495060860199
aF0.007220512926170916
aF-0.03095214963148844
aF0.004399551192728001
aF0.0007450652051851923
aF-0.000883322488163627
aF-0.011081574532021245
aF0.004268293052518146
aF-0.006394123013092558
aF0.00879606853674349
aF-0.007744487507116322
aF0.001913630647475974
aF-0.03471249342196021
aF0.10229398513274415
aF-0.005560340480894041
aF0.0005385782071219551
aF-0.004240880419592019
aF0.007020411476552945
aF0.00429507664454389
aF0.01386793337845249
aF0.006685636816422621
aF0.002098749495848169
aF0.03438579487244068
aF0.03071456788601797
aF0.004583443244308036
aF0.02928212962244038
aF0.07415972973714394
aF0.051056614137309365
aF-0.05787946215646863
aF0.03627269661474576
aF0.003914357872435836
aF0.02211441636644767
aF0.0951194199007704
aF0.012769617274856144
aF0.11288958840846189
aF0.056287151224562945
aF-0.0057834621699746295
aF0.031405373991379326
aF0.0032952994612650954
aF-0.00236809814948342
aF-0.010531209304403318
aF-0.1323894399456807
aF-0.0023487674706474805
aF-0.0004824659168718026
aF0.13739748201007124
asI44
(lp46
F-0.05368484563679435
aF-0.04208023542573195
aF-0.09888447415663901
aF-0.009439046898264573
aF-0.08955663996119559
aF-0.013695500340944135
aF0.004491393068842298
aF-0.03823333939375896
aF0.06033738570974432
aF-0.05232467913883174
aF-0.015962607461919815
aF-0.021029651660792452
aF0.002282688762405555
aF-0.026589873485576513
aF-0.0030809592848616394
aF-0.007516887818284209
aF-0.0001923896843297432
aF-0.015960343838798994
aF0.007595456355616521
aF-0.009653549532934083
aF0.0013268165245529583
aF-0.0017135436659288198
aF0.0030286370472515536
aF-0.029458244865866328
aF0.09648082719569027
aF-0.004348574307386781
aF0.008688654859732964
aF-0.007289684557307241
aF0.009171881336283034
aF0.002700516828032138
aF0.01598014580320069
aF0.009419192451333193
aF0.00818100642352292
aF0.029463006818079923
aF0.0318981450664157
aF0.009385225831803406
aF0.02342879687540244
aF0.07347322620279803
aF0.0582272294667961
aF-0.05580557970529138
aF0.03412236096661797
aF0.007211558053164981
aF0.02681619132248859
aF0.09572424380890182
aF0.02150262010457879
aF0.11020095498544061
aF0.06030343642737916
aF0.0011263579089927265
aF0.03788838882472712
aF0.0023458406833993797
aF-0.003357543086765874
aF-0.017513014693806877
aF-0.13353933932814388
aF0.0025745672609446403
aF0.00319426605465059
aF0.1412237643802035
asI45
(lp47
F-0.05199673595947745
aF-0.03807668648403684
aF-0.1023248421376279
aF-0.006761940256734734
aF-0.09411551398767425
aF-0.0158621079329078
aF0.010601020469083221
aF-0.04066871145899799
aF0.0611564169475599
aF-0.04589556610987073
aF-0.013645362216017969
aF-0.022319168341615302
aF-0.00024380754637379952
aF-0.0250370066288717
aF0.00036291919966654384
aF-0.00803162535266044
aF-0.0023983452554561125
aF-0.015873924318739612
aF0.006448494078995807
aF-0.004841592139171237
aF0.003084226260629811
aF-0.00011179897855900934
aF0.0033689231078400865
aF-0.03008344785948782
aF0.10156367390093127
aF-0.0077339979484749195
aF0.0037781679091719194
aF-0.0073489932196966305
aF0.0042503092221359146
aF0.002759044108276368
aF0.01282068659332233
aF0.00853005845708954
aF0.002850706330042008
aF0.03714667907819337
aF0.030967478108911466
aF0.004128156048505738
aF0.022755654027725124
aF0.07604526037695461
aF0.060777994408404964
aF-0.05351114919486567
aF0.035279860858866356
aF0.007861691134370357
aF0.022281044811604537
aF0.09081789394195207
aF0.015550460815864538
aF0.11282362911979008
aF0.063503309667367
aF-0.0005210761689883053
aF0.03174659469277254
aF-0.0006525635138147689
aF0.00035998934286631256
aF-0.012729226477327119
aF-0.13393122041980668
aF0.002412602438700533
aF-0.004591890618997826
aF0.14037353356034027
asI46
(lp48
F-0.05201781235907973
aF-0.04504692172479675
aF-0.0991581291328414
aF-0.009539453204591425
aF-0.09395004371616668
aF-0.010153857613761762
aF0.008566873844551931
aF-0.03883308700634335
aF0.06894288210184459
aF-0.04748713784515247
aF-0.014553507525861757
aF-0.023485846426149242
aF0.006624196333464907
aF-0.031066821639935495
aF0.0038354766176857675
aF-0.006695163101304149
aF-0.0019652293817968764
aF-0.016850213919993813
aF0.0014161225053055154
aF-0.011547576805748331
aF0.010697942806257466
aF-0.008015787694476624
aF0.0010348179932727715
aF-0.028679673553599714
aF0.09541406266221776
aF-0.00783509086382756
aF0.00446295962744184
aF-0.005906648308250491
aF0.00665019150537366
aF-0.0047499646037594875
aF0.017797999105544998
aF0.0033043690194275183
aF-0.00033658501837885527
aF0.03654646477695622
aF0.02966444303617256
aF0.006248003549846634
aF0.027077847398940147
aF0.07467174679597736
aF0.052658330269655884
aF-0.05524102480417862
aF0.039104382151890486
aF0.005119071752846986
aF0.021151440034462135
aF0.0928976979887904
aF0.018879211759683275
aF0.11533415724286669
aF0.06062984986652436
aF-0.0035244662623354663
aF0.03565900896223193
aF-0.004826660998324603
aF0.0017354595083219294
aF-0.009132895682656846
aF-0.13324075121170995
aF0.004054155873324596
aF-0.0029346171105610244
aF0.13593408990857547
asI47
(lp49
F-0.05173185983178942
aF-0.042608083705383146
aF-0.101124857962965
aF-0.009132115301583086
aF-0.09179516929242518
aF-0.017126346370829975
aF0.0094013025088926
aF-0.040113280280670585
aF0.06454098716596002
aF-0.04714562883790272
aF-0.011515413115208897
aF-0.02657358414288823
aF0.005200445605988397
aF-0.02829057395647298
aF0.0015853723944816902
aF-0.0033496084450228363
aF-0.005490984075725831
aF-0.009691637715728474
aF0.003670016708845728
aF-0.005428885334493316
aF0.006505437661030521
aF-0.0031618692053701812
aF0.0010374144861929576
aF-0.030758392257434326
aF0.09986167835987816
aF-0.008490795221543074
aF0.007564412259048693
aF0.0014858636013772213
aF0.005343877327421249
aF0.004081846482152043
aF0.018518631919928027
aF0.003992319556228262
aF0.0027334979597379355
aF0.03805028491685161
aF0.0318324012508843
aF0.009985393917237583
aF0.022598225986499847
aF0.07450758905129176
aF0.06082601502556629
aF-0.05931430923730978
aF0.03815156462383978
aF-0.00043668079495997
aF0.022501595740521626
aF0.08998876514848662
aF0.018980561703153674
aF0.11332331508906603
aF0.06255881034727118
aF-0.003916589275211644
aF0.032229423541111864
aF-0.00202942242886957
aF-0.0042562164159316174
aF-0.009848279553034217
aF-0.13273426369901978
aF0.0005448058730679434
aF-0.0032520966742877406
aF0.13722451572891978
asI48
(lp50
F-0.048994590920373796
aF-0.04486065986096083
aF-0.09927082722945778
aF-0.006295360619111266
aF-0.09412217626791834
aF-0.01682974458064711
aF0.0035524370127617807
aF-0.03466051142414848
aF0.06329033699801602
aF-0.045426744118842344
aF-0.01094554938075206
aF-0.02766007568925226
aF0.007227421860266901
aF-0.028140724748347442
aF0.003770525838257108
aF-0.005933132774873511
aF-0.0038796962427921815
aF-0.015392241943650785
aF0.005153597667243551
aF-0.006378078028367503
aF0.0024737819594596224
aF-0.0038906116165379227
aF0.001597775018411198
aF-0.030531770417454328
aF0.09693084302317684
aF-0.005360460285173591
aF0.002494258799808634
aF-0.007205105754215262
aF0.007518903663661464
aF-0.0026409503336874357
aF0.020616615639030878
aF0.009433061584759891
aF0.009079166329322595
aF0.03494005374648375
aF0.03533040490983149
aF0.004708657479788606
aF0.027931766293631814
aF0.07220460083441084
aF0.05305215158624238
aF-0.05633419420049031
aF0.03563291673272012
aF-0.001784591040889304
aF0.0222370580259449
aF0.08810431804663288
aF0.011092908966771023
aF0.11310611093947817
aF0.056911032677442394
aF-0.006161294879861756
aF0.03726204612895767
aF0.0016908566079481026
aF0.003895374443150621
aF-0.018256842496424147
aF-0.1300829831178118
aF-0.0039052460153416123
aF0.0033685418061690665
aF0.14351002697006723
asI49
(lp51
F-0.05116699888350373
aF-0.039452922552907985
aF-0.10060034008434517
aF-0.006985203220449275
aF-0.09551680337162129
aF-0.015364598570251837
aF0.010955108455519768
aF-0.034729426975168176
aF0.06486254473672946
aF-0.05096783594598816
aF-0.01077313019791718
aF-0.022585980298579448
aF0.007307517780078948
aF-0.02412213480422102
aF-0.0038917163152168617
aF-0.002889150527204426
aF-0.003744822613783431
aF-0.014519761495903621
aF-0.0006963480637706294
aF-0.007729188868548169
aF0.00892689872900052
aF-0.005644349584924811
aF0.0077573647806744835
aF-0.034970513736143044
aF0.09577397138328328
aF-0.0028185916325459805
aF0.006303314641117426
aF-0.003630313697184912
aF0.0055782716383942655
aF0.0022473202678063614
aF0.021508123756000384
aF-0.00020431435637561842
aF0.0011161054376357207
aF0.03929083065904926
aF0.035301423502267316
aF0.009511062202565116
aF0.02843425258380617
aF0.07205086895033165
aF0.053747600862491106
aF-0.055849255463459514
aF0.042253460330379744
aF0.003993279137907823
aF0.02646142292246312
aF0.09160795806855322
aF0.015821516028625054
aF0.10662008661461603
aF0.05606812901780446
aF0.000283797193904203
aF0.03638750495044793
aF-0.003573072718965536
aF0.0036531104967476606
aF-0.01197896093284148
aF-0.13226941403792913
aF0.003356771962514619
aF-0.0027319965320912517
aF0.13852976378516726
asI50
(lp52
F-0.04797899050005108
aF-0.03898318212322516
aF-0.10005970375216804
aF-0.007785588850735287
aF-0.09142333316162456
aF-0.01724072461733938
aF0.010611402480776064
aF-0.038415052967879976
aF0.06699879298168533
aF-0.053700740320626425
aF-0.012682646336360685
aF-0.022032532508385647
aF0.002550251939972543
aF-0.023471122917853582
aF-0.004633502211450244
aF0.00037280989043145984
aF-0.00658703722568022
aF-0.01416691390175068
aF0.006192203735855204
aF-0.006992319417868088
aF0.005087664255247488
aF-0.003039115102680068
aF0.0061243961315974975
aF-0.03248806058504215
aF0.09584162172039819
aF-0.011967009800324313
aF0.00036007406110010793
aF0.0006336444322576826
aF0.004110293330487299
aF-0.0019497392610188422
aF0.012434852676543416
aF0.006320263075312002
aF0.007818958238972286
aF0.029614614011846004
aF0.034176647566457836
aF0.005688074128021441
aF0.023614006986891492
aF0.0715065718282944
aF0.05345223944242938
aF-0.06054344634344894
aF0.03537215824847306
aF0.00341855751090207
aF0.025517223926340614
aF0.0914137359868047
aF0.015437886531438077
aF0.11147835795778013
aF0.06490688899141459
aF-0.00484076563435839
aF0.02927660325245444
aF-0.003210965373950027
aF-0.002936938605261027
aF-0.014231918318626007
aF-0.13211451936034027
aF-0.0009571969293113003
aF-0.0021029376495729367
aF0.13809601509789002
asI51
(lp53
F-0.05057786197373236
aF-0.04488242314463978
aF-0.10225232137212832
aF-0.008126384152169147
aF-0.09522758494285474
aF-0.013170321837252476
aF0.008754803216126292
aF-0.037802325086443864
aF0.06506867754706096
aF-0.05247581270467894
aF-0.010784171804458684
aF-0.023946913490847068
aF0.0063325006834217944
aF-0.024179567588023795
aF0.0042196647565578786
aF-0.006044227432907505
aF0.00033037497480644024
aF-0.016258480367176305
aF0.002630362854937599
aF-0.0045241460147576905
aF0.010595454960803568
aF-0.008174648823841477
aF0.00566097766730633
aF-0.030044396265837426
aF0.09999777660088993
aF-0.002886308492390747
aF0.004095357767830797
aF-0.0019844391588304247
aF0.008358117549978446
aF-0.0041939713182745095
aF0.01288900250465569
aF0.005019463603035219
aF0.008941613193873795
aF0.03838745052297439
aF0.029576540452689
aF0.0055220291874533015
aF0.028781689583170775
aF0.07500802290975105
aF0.051068697581168124
aF-0.05916707904441937
aF0.03865299396810494
aF0.004081296606394756
aF0.027161072436276974
aF0.09251032338761747
aF0.016715964557483885
aF0.11461023383661123
aF0.06234603855608097
aF-0.00011138119811599206
aF0.030975087063367365
aF0.0020065036162101603
aF-0.00422016672532754
aF-0.017197113063706766
aF-0.13441717327967775
aF0.0040954745904602215
aF-0.0028898016438030213
aF0.1391875509804238
asI52
(lp54
F-0.05226265784336273
aF-0.0417037663643396
aF-0.100758100953398
aF-0.002887026541063579
aF-0.09242232588951764
aF-0.010867816533330058
aF0.007728090350166378
aF-0.03650334250933546
aF0.06366085457739314
aF-0.05032997491420081
aF-0.008142856869217228
aF-0.01974561697998723
aF0.003536609873671764
aF-0.03116600305973599
aF-4.889599444210659e-05
aF7.830043457061072e-05
aF-0.0014342839883769506
aF-0.0163046888837818
aF-0.0010441032760144784
aF-0.004318354355563977
aF0.00781176403016071
aF-0.001494154209911276
aF0.003320977712271112
aF-0.02920175008736584
aF0.09727607524119693
aF-0.010481490113727905
aF0.002264758507811249
aF-0.002655967247557703
aF0.007280062352637543
aF0.0008809365071399348
aF0.017502626807689638
aF0.006860790893964237
aF0.0014164562912963882
aF0.03441386137775102
aF0.031694807236432254
aF0.009370037443996677
aF0.030150391542405744
aF0.07151740836488968
aF0.05056561821365828
aF-0.05795980701096406
aF0.037183997171433426
aF0.004524336119285085
aF0.02172301015896375
aF0.09322901393515995
aF0.01966418684425236
aF0.11124743014426437
aF0.057152047049981655
aF-0.005188179399830912
aF0.03660515071118489
aF-0.003376673685467282
aF0.00012345266017278815
aF-0.014837393448911471
aF-0.12938384833788638
aF0.0021118224229308524
aF-2.9453196141513422e-05
aF0.13557536291011396
asI53
(lp55
F-0.05007206096144726
aF-0.04405927560442567
aF-0.09920628964652921
aF-0.0031011740702150932
aF-0.09466724649285425
aF-0.018602870476515734
aF0.008933808923918965
aF-0.03278226766013183
aF0.06423009960336278
aF-0.0539856175138061
aF-0.012842126740091492
aF-0.022784565882638913
aF0.002799734420689178
aF-0.0289070754232766
aF-0.0036235586159253735
aF-0.002070375637890285
aF-0.002922150350437001
aF-0.012495030992750374
aF0.0063187401964263
aF-0.011085819040514965
aF0.010601245646830718
aF-0.003492376398248993
aF0.003606205880475305
aF-0.027829935280135196
aF0.10140747397729545
aF-0.004303843795472438
aF0.004090509250714342
aF-0.0023539948116945777
aF0.010531577542922931
aF-0.0008694666016197134
aF0.012976924041214003
aF0.007918676814685109
aF0.007756234096751187
aF0.032038040004246565
aF0.028339707793556403
aF0.0014179615579183189
aF0.021007403561090286
aF0.0748794147566552
aF0.05808235426622973
aF-0.05607247133783194
aF0.04035894352170146
aF-0.0002639943423527078
aF0.021877228499269246
aF0.09299219607840707
aF0.013054111793206907
aF0.11243914752438018
aF0.058724028202075
aF-0.0023627637380866087
aF0.03297393327355402
aF-0.004209015081999152
aF0.0002722415303568737
aF-0.01629286433761345
aF-0.13390100097926666
aF0.0038996828016409986
aF0.0027730951095712897
aF0.13704324869753517
asI54
(lp56
F-0.04877650353356171
aF-0.04011270055017
aF-0.10500758350579914
aF-0.00388445484424671
aF-0.09130162974099011
aF-0.01640008665630795
aF0.0046236435727036755
aF-0.032374469840313176
aF0.06476837271583448
aF-0.04666396419866975
aF-0.014779891866375542
aF-0.02163213281373896
aF0.007314456481319134
aF-0.026939819866866003
aF0.0018787328994431228
aF-0.00344523911956184
aF-0.0011765977629598042
aF-0.010513633242229217
aF0.00041406949049286175
aF-0.0060835614957705135
aF0.006825861029419877
aF-0.0025892242159120077
aF0.0036948221680490677
aF-0.02858607887272526
aF0.1034029950755542
aF-0.0032877527654264775
aF-0.00029601375058990135
aF-0.003457666916203582
aF0.010755571541349497
aF0.004260510026409565
aF0.011860894367036922
aF0.008753759389602602
aF0.002221020916627558
aF0.03264393504652436
aF0.03279288013163358
aF0.0007470786635228084
aF0.028691807045654612
aF0.07416140641237151
aF0.060999615311118825
aF-0.05752895156851676
aF0.037219201043334996
aF0.00023104644765708723
aF0.021467598586168733
aF0.09591011082003677
aF0.01701514208975991
aF0.11121829532736813
aF0.058669435482740416
aF-0.0023085679378893487
aF0.03798272944843973
aF-0.0008737749416154071
aF-0.0024719680339088954
aF-0.0182928215288275
aF-0.13383642071537422
aF-0.0021714923683355323
aF-0.002448851865916519
aF0.14128021381986236
asI55
(lp57
F-0.04737269058160749
aF-0.04107046441692351
aF-0.10370026520803625
aF-0.001995239590088516
aF-0.08846779304069424
aF-0.013526778903675998
aF0.009898373796890663
aF-0.036616606651895624
aF0.06916794240334631
aF-0.05326078984703662
aF-0.010636505267225373
aF-0.020842110519295846
aF0.0033762900845478298
aF-0.028992396606838708
aF-0.0016253292608015405
aF-0.007785974877129219
aF-0.006431958956143756
aF-0.010118733173826939
aF0.00022422829386863633
aF-0.00551487683664582
aF0.0077763426509509575
aF-0.006678476956458665
aF0.007141205227024907
aF-0.03477223684011165
aF0.1009439029736658
aF-0.008367585879472244
aF-0.00042185477057013905
aF-0.0038961984911865012
aF0.009475863026239102
aF0.0033681337699796253
aF0.015032806356926637
aF0.009676262650500748
aF0.004422614435887229
aF0.03716604478954395
aF0.03638362597164239
aF0.0055822589248466625
aF0.029501374090838577
aF0.07660473663074759
aF0.05718612178109164
aF-0.054553769706385785
aF0.037641985402847446
aF0.006740591330606705
aF0.028742419036999898
aF0.09438351054096883
aF0.013192230415429407
aF0.10812052959855527
aF0.06386936928223307
aF-0.005786915107733055
aF0.03429053411749186
aF-0.00374689900328673
aF-0.00017539041566796753
aF-0.016604081983642462
aF-0.13293285229378138
aF-0.00010380893841233863
aF0.001706464897267319
aF0.142268047010898
asa(lp58
F0.012060662824860967
aF0.010187133250308058
aF0.010725672196893252
aF0.011828253984460168
aF0.0113635170637526
aF0.010568882265278889
aF0.012163529563090894
aF0.004127506237925312
aF0.0060107340464286675
aF0.007740212205750151
aF0.007841800300827362
aF0.006003824384651959
aF0.010796356082011436
aF0.00915061723631715
aF0.004243159769772479
aF0.006195135534082734
aF0.009124628875148215
aF0.0039319252843552305
aF0.004137105821264027
aF0.008075153197073222
aF0.012320550715146148
aF0.00558215255806133
aF0.003617494666515218
aF0.003051575165682017
aF0.009236963119701156
aF0.012436291972091826
aF0.008737518679762921
aF0.01096284372304089
aF0.011747905761168279
aF0.009078193175912967
aF0.01147877088020455
aF0.003382796518968629
aF0.0048155238719595405
aF0.01090301045158707
aF0.00492388526400227
aF0.0033634726969208883
aF0.008056796055005169
aF0.012259332041352197
aF0.006333384776017151
aF0.01080745849862609
aF0.005428645708889243
aF0.009878585263011757
aF0.004309001363250175
aF0.011727328913531919
aF0.005622183936760545
aF0.0038634715584726807
aF0.010577427809985015
aF0.011913586851784565
aF0.002715819264908778
aF0.012089125699309242
aF0.00519267571129907
aF0.006879543647939728
aF0.007149427079485409
aF0.00835494809732033
aF0.009333388623147058
aF0.005163896361041398
aa(lp59
F0.04953584682204064
aF0.04310121296215641
aF0.04151661292010457
aF0.05075748859245918
aF0.0458411305680175
aF0.04168745951726566
aF0.04817866559341108
aF0.04491969644591526
aF0.049216634947045965
aF0.04145894394706982
aF0.040840134889045684
aF0.03879016611203859
aF0.04704113100503765
aF0.04224900043800778
aF0.04072273026695819
aF0.04686791626590969
aF0.04584208995915047
aF0.04499329947477676
aF0.036714035634066666
aF0.0426267825089507
aF0.04875292035626308
aF0.04776771537889747
aF0.04398752198479798
aF0.04993357188903086
aF0.047534879393495294
aF0.048248185534716576
aF0.04623843326827119
aF0.0442129578666836
aF0.04527471389867867
aF0.040703462771702725
aF0.05250984626870457
aF0.04185598029534146
aF0.05066629635219931
aF0.05029282212910455
aF0.04411229208574896
aF0.03953633365326563
aF0.0471493110266929
aF0.044528012096520325
aF0.04406495633861349
aF0.04362755412740184
aF0.04611828931847249
aF0.042138621473868085
aF0.04799333893186711
aF0.04227103257759218
aF0.047859759936910704
aF0.043236033271092
aF0.0473080033881
aF0.0433076327044221
aF0.040733941725454886
aF0.043706179961975816
aF0.03987431642431365
aF0.050668435692708
aF0.04208635665833653
aF0.04853338685779941
aF0.04850525295149159
aF0.04314280908528259
aaF2.339976336786557
a.