(lp0
(dp1
I0
(lp2
F-0.06682670339149349
aF-0.046588918136356156
aF-0.11752127350315904
aF-0.01781709191932983
aF-0.11034537327056408
aF-0.019684765878095464
aF-0.0015792460773286063
aF-0.057212547376514815
aF0.06107725733284671
aF-0.05863975822718823
aF-0.03743026602992783
aF-0.03163823085763257
aF0.003894374037882229
aF-0.03382129344052693
aF0.007838981243224272
aF-0.012759331393983548
aF1.8868708514177866e-05
aF-0.01296052163698438
aF0.00655105269581392
aF-0.012310946610846491
aF0.010468165265624522
aF-0.00902937759597537
aF0.010270114109561017
aF-0.04311487066134624
aF0.11476110621755818
aF-0.013347406301647923
aF0.007914227712296626
aF-0.0057301708608722265
aF0.009995306169800369
aF-0.0016547383052002594
aF0.021383157656464855
aF0.007591350396172647
aF0.013643007375746136
aF0.029624998915483536
aF0.038705402485628676
aF0.00819808733283753
aF0.03665975084805997
aF0.09906071536878909
aF0.06707284313256047
aF-0.053076329817195726
aF0.05789596292054253
aF0.0075961920333106146
aF0.02255014682312041
aF0.09959107772323049
aF0.02783166188775317
aF0.12199240660798012
aF0.06528378986845285
aF0.007817806426513581
aF0.04350536329013613
aF-0.002852189705993001
aF-0.00022163942444916487
aF-0.01579723819685022
aF-0.15801250703786557
aF0.0008181714063821566
aF9.40569404820123e-06
aF0.16855163272469095
asI1
(lp3
F-0.07130558286233335
aF-0.04883981328439968
aF-0.1173082424519744
aF-0.022214867035371552
aF-0.11019082635509542
aF-0.01853434308858372
aF-0.002040075803310595
aF-0.05165814167194396
aF0.062122163153890506
aF-0.05912312459297937
aF-0.03532037383932212
aF-0.029699341452871977
aF0.0008467792811637538
aF-0.02951729806993448
aF0.00885927448370552
aF-0.006479140772638639
aF-0.002294185874168167
aF-0.018753504479085192
aF0.006979302770925907
aF-0.005223209731667191
aF0.00744817649687381
aF-0.008796473582830934
aF0.0033262860609365582
aF-0.039517879333001237
aF0.11086106353836635
aF-0.011840185976898933
aF0.005507592564776913
aF-0.008142990385055974
aF0.012695217473380482
aF-0.005055327118602517
aF0.022044759824903035
aF0.004715218382738486
aF0.01282026035495973
aF0.025455120568674244
aF0.034023766346979366
aF0.008369879132323217
aF0.03153904461290914
aF0.09520936392618772
aF0.06962479927335329
aF-0.05435610830931348
aF0.05366734565388254
aF0.007960019185937839
aF0.02700679921566858
aF0.10121289100301537
aF0.029831649904190363
aF0.12744022758140777
aF0.06277614883885183
aF0.012480864931274663
aF0.03810500138298383
aF-0.0032190090554390705
aF-0.004310299230757324
aF-0.020055154324728684
aF-0.1604062589215422
aF0.0027438469794125067
aF-0.00013805022462756267
aF0.17113498970946034
asI2
(lp4
F-0.0694112124803859
aF-0.046628981540567147
aF-0.11544345868129229
aF-0.019074102655117234
aF-0.1049245284121926
aF-0.019671865832392735
aF-0.0032141087655464776
aF-0.05563815387978839
aF0.05842916718875255
aF-0.05866160623455182
aF-0.03850075403507671
aF-0.03394112730678341
aF0.003608111369713183
aF-0.035151927146975216
aF0.011395120348673533
aF-0.013205598561330596
aF-0.0052264243608367705
aF-0.014384493452710985
aF0.003038204039356593
aF-0.008414482485621681
aF0.011056556978998945
aF-0.010390911269202345
aF0.003915126336128449
aF-0.04166672535879514
aF0.1169717302276161
aF-0.007582978192921417
aF0.011721304233086607
aF-0.00901083814513945
aF0.005206940525644826
aF0.002594200273218748
aF0.016191975830314054
aF0.0007915507875976178
aF0.011270222974091085
aF0.031352436520907946
aF0.042960309210430696
aF0.00044286801415088886
aF0.03383478603750507
aF0.09618797605146086
aF0.0707620034308811
aF-0.05049902963531538
aF0.059153638238685906
aF0.010306282332450945
aF0.023816494130323586
aF0.10232684767771717
aF0.02861932286963874
aF0.1208684255918704
aF0.07030936120055256
aF0.009331733441207206
aF0.03978052984719999
aF-0.00357117280025436
aF-0.002231642144319254
aF-0.01873653623916859
aF-0.15799675669211397
aF0.004099190300783322
aF0.00034579473962054603
aF0.17194989146278
asI3
(lp5
F-0.06790238561919527
aF-0.041794888532460446
aF-0.11856359403684318
aF-0.015467587695337005
aF-0.10987595389530619
aF-0.01302363829033839
aF0.002636408092056805
aF-0.056307413401376946
aF0.0644411732162857
aF-0.06405612517479901
aF-0.03416882710831406
aF-0.03575354049818706
aF4.031525605329609e-05
aF-0.03346723849317258
aF0.004641218906738263
aF-0.005362766910451141
aF-0.007541984758257633
aF-0.02040972878261093
aF0.0025213735811017504
aF-0.01199457496601989
aF0.007473422274470498
aF-0.013171418348455562
aF0.004789293242204399
aF-0.041714949453225854
aF0.11602756650032658
aF-0.005906073876579069
aF0.004476543811305792
aF-0.00203967363319153
aF0.013349393473384631
aF-0.005200745013104312
aF0.018588424920328896
aF0.00020081709392622216
aF0.013925610802204278
aF0.026759929704627212
aF0.04043319659807376
aF0.0012014674886695333
aF0.030156030237874998
aF0.09848208495690806
aF0.07007493971321582
aF-0.0547015551911756
aF0.05642255174869786
aF0.011603762730107601
aF0.02626083199833326
aF0.10735162823472204
aF0.02448666423172086
aF0.11960704310760642
aF0.06545817306950552
aF0.012750311624318252
aF0.039438721043458566
aF-0.00452053139063417
aF-0.004874932569196785
aF-0.015719210828808276
aF-0.16186261186422887
aF-0.003857879621495917
aF-0.0002535228997065105
aF0.17452046031350277
asI4
(lp6
F-0.06953278145599391
aF-0.04499913123707193
aF-0.11760987161347378
aF-0.02104299683853562
aF-0.10454692845363171
aF-0.014808172933132285
aF-0.0037612990633466214
aF-0.0522678375321434
aF0.05458906562046217
aF-0.060846938602655214
aF-0.03815397771211806
aF-0.03464995650739709
aF0.0006370046971231413
aF-0.03070754410353659
aF0.005879669379028549
aF-0.007246758511039416
aF-0.0056013833410678135
aF-0.01761503319056437
aF0.0060496626698254615
aF-0.01133503348823249
aF0.008611314678699451
aF-0.007464918300963988
aF0.010486578509919171
aF-0.04266900362523961
aF0.11803764001944711
aF-0.007104839761152344
aF0.006492781148773585
aF-0.004001606519417536
aF0.008753495287787606
aF0.0008003881290044421
aF0.0183257393125225
aF0.007589461354471321
aF0.006671470803314653
aF0.028897759038994345
aF0.038548507719610124
aF-0.00041119962186988795
aF0.03811842362465244
aF0.09497464457092052
aF0.06490946921232284
aF-0.052096037489173186
aF0.056400463588774555
aF0.007411298519435749
aF0.031163759208118532
aF0.10348104333142227
aF0.028020085427276197
aF0.1215744363868941
aF0.06686591908066081
aF0.013173236280708232
aF0.036735536499726294
aF0.0005104984100483374
aF-0.0009101466274184748
aF-0.0164226606987473
aF-0.16034168963796633
aF0.004960689231861011
aF-0.0018513976235754687
aF0.167813603691178
asI5
(lp7
F-0.06641023700554742
aF-0.04602275856595529
aF-0.1178481498103004
aF-0.015109668381257364
aF-0.10735971715567585
aF-0.011660189558953094
aF0.00101113209343983
aF-0.052971262593299956
aF0.06269473041306152
aF-0.06115257531053148
aF-0.03392461529237497
aF-0.03344874909168478
aF-5.896703529003444e-05
aF-0.032791765377154315
aF0.009095088402242517
aF-0.01334703719397704
aF-0.005836658168417822
aF-0.020493782505763967
aF0.001433737568054944
aF-0.006777383868401461
aF0.0082457088558964
aF-0.00766828675958948
aF0.001319577738273847
aF-0.04071802210066945
aF0.11585101774035943
aF-0.005174781806600357
aF0.010337860106530232
aF-0.002857964516177403
aF0.006784794621097559
aF-0.002649805878560606
aF0.01881259394503687
aF0.0057949455970055415
aF0.006823767860634506
aF0.025230696859482947
aF0.033808061983221095
aF-0.0010162417047035325
aF0.02925316578389558
aF0.0961467778767038
aF0.062154222128224836
aF-0.05458485521162256
aF0.050510372799084394
aF0.005249634899580088
aF0.02310399330251376
aF0.09777503657175407
aF0.030375072449445324
aF0.11980896064256352
aF0.06059294020258649
aF0.009450446575044695
aF0.04342386168353061
aF0.0005045732843271047
aF-0.00021910327534905379
aF-0.016612374836047918
aF-0.15952387160653986
aF0.0031155706380707553
aF-0.0011261319836199865
aF0.17344989563212196
asI6
(lp8
F-0.07137367990424057
aF-0.04451376265884068
aF-0.11988545842135512
aF-0.01701017595354186
aF-0.11047007883858218
aF-0.014045962867073125
aF-0.00045114533133996395
aF-0.05365045977535451
aF0.05614045677951221
aF-0.05759411656398793
aF-0.03232963797683299
aF-0.029742963160917697
aF0.004449862134886028
aF-0.03415109880757329
aF0.011099978986727325
aF-0.010063875375773731
aF-0.006298114749344528
aF-0.013725650023803227
aF0.004552811338971205
aF-0.010052689666314474
aF0.0027780789218766542
aF-0.009900835513430557
aF0.004444315081292515
aF-0.04344462173991414
aF0.11496668839630247
aF-0.013474152935311828
aF0.007372111311219729
aF-0.006864815136631892
aF0.013263440090310014
aF0.0029044973535154416
aF0.02538245047949909
aF0.009674307974243209
aF0.006719008273702138
aF0.030869571033095736
aF0.035045219975538916
aF0.005740138355436861
aF0.03323603636309821
aF0.09049358369221325
aF0.06792100198720483
aF-0.057577699859776614
aF0.04973858850746073
aF0.00884652470589783
aF0.025935369434525485
aF0.10700118400912866
aF0.026778569033467963
aF0.12561759715130422
aF0.06738250123971197
aF0.01398612535181984
aF0.04353088655196463
aF-0.001188820305853916
aF0.002998751833439878
aF-0.020133175848946985
aF-0.1610235687617963
aF0.0010380585008681956
aF-0.0021866236144002737
aF0.17415068663467342
asI7
(lp9
F-0.06536945235902604
aF-0.04508526024947647
aF-0.11838061038308645
aF-0.021869057682851377
aF-0.103000615033886
aF-0.01601590346880474
aF0.0003044567718796891
aF-0.05071261668095666
aF0.06087525071442196
aF-0.0644463698513748
aF-0.039927159777626474
aF-0.03505297383743736
aF0.006991018906126757
aF-0.03168366871365474
aF0.01261830994756859
aF-0.012379486512864647
aF-0.004509200409234316
aF-0.0158509837369885
aF0.002420342990835487
aF-0.0064563714624728905
aF0.0109164377117411
aF-0.010342645818617924
aF0.00778813537572592
aF-0.038828469566182945
aF0.10841033596935265
aF-0.010295181821582256
aF0.004786608988971529
aF-0.004486904783444955
aF0.007678945603274314
aF-0.0026634454301090794
aF0.022497401826904177
aF-0.0001376200202158011
aF0.006445399739995697
aF0.030818257185724233
aF0.035465956597688475
aF-0.0011844895206530738
aF0.03802314285923438
aF0.09331491561003605
aF0.06359037965359564
aF-0.049369100641652515
aF0.05193066588544283
aF0.001502899984851417
aF0.020637029903769276
aF0.09884899063679412
aF0.027626566087893288
aF0.12340299823611921
aF0.06133366336866498
aF0.009848109131672538
aF0.036979142040162234
aF0.00035956725991478743
aF0.0022647787919955757
aF-0.02146028138856383
aF-0.15951468176643702
aF-0.0007375218380244238
aF-0.0033544954788321565
aF0.17349477045669037
asI8
(lp10
F-0.0704667303241268
aF-0.04734298909162803
aF-0.115045641332329
aF-0.019434440660869516
aF-0.10729746318600582
aF-0.01567874394064979
aF0.003375305420911811
aF-0.05735599286505165
aF0.05954515216090181
aF-0.06095060753979683
aF-0.038901053482258925
aF-0.02787493326084143
aF-0.0005144616228034337
aF-0.03503249929625013
aF0.010055736134910488
aF-0.012637461725179681
aF0.0004819944526071994
aF-0.015921759288132217
aF0.00021721714626662996
aF-0.005215868700864653
aF0.011573008079968796
aF-0.005759446326786058
aF0.010796384631010902
aF-0.04421360088892031
aF0.11211360101824529
aF-0.008444549333214424
aF0.011285421477613265
aF-0.009468132093877677
aF0.008697600069250539
aF0.0021196802792155054
aF0.01582631217950755
aF0.0046003580110573926
aF0.005754790730331602
aF0.02664650560728577
aF0.04291903820528685
aF-0.0009889313807771463
aF0.03020512693495584
aF0.09488275858875057
aF0.07030822979043928
aF-0.05314530154383182
aF0.0520363857417561
aF0.00670067232697214
aF0.020907771409522203
aF0.10147118269811578
aF0.03171142521320899
aF0.126537806986619
aF0.07059112195900132
aF0.009830312931696427
aF0.03984075890074191
aF0.0031188126845703634
aF-0.0006924507067738117
aF-0.016116707547509893
aF-0.15869264595368454
aF0.0015822373088552034
aF-0.004237460374336625
aF0.17621570275337187
asI9
(lp11
F-0.06774976981648295
aF-0.04951508779684814
aF-0.11751415947671165
aF-0.015451639612923663
aF-0.10529691322844888
aF-0.013112272284591045
aF-0.00020173660630232507
aF-0.04926120926452509
aF0.0563027881387502
aF-0.05996119027433951
aF-0.033616222115992106
aF-0.02791127359930281
aF-0.00011387151028509977
aF-0.028068355439366855
aF0.005686944123222815
aF-0.014700908151823015
aF-0.008586545412330976
aF-0.0137882575527807
aF0.005881275375542706
aF-0.009807125494898
aF0.0030011514335840555
aF-0.010482722363948649
aF0.004044688092091923
aF-0.040320537721111674
aF0.11414894702665868
aF-0.013429482402985199
aF0.004440348910508927
aF-0.0028182874958628773
aF0.007117367131733893
aF0.000473955188251715
aF0.015927562035119917
aF0.0069392633585718235
aF0.013648979881812745
aF0.023084700121579083
aF0.04117720062226595
aF0.007419259386939025
aF0.032988042669056715
aF0.09144760284083264
aF0.06319134203554097
aF-0.05644889333627653
aF0.052881854408080686
aF0.00630416472090644
aF0.023841422732457717
aF0.10752526006969541
aF0.0239440246672598
aF0.1194929219146973
aF0.06738465406265436
aF0.008813728790129188
aF0.036865215258576986
aF0.001519081349660907
aF-0.000837271943694041
aF-0.02298716685952946
aF-0.15895551232804805
aF-0.003683521068044685
aF0.0026438078020219915
aF0.17392585535554178
asI10
(lp12
F-0.0671748919659233
aF-0.046832455508002316
aF-0.11673855778232382
aF-0.020881379416215002
aF-0.10520804001070001
aF-0.02003222829149157
aF0.004285134149705617
aF-0.05044744249113377
aF0.05695390407008186
aF-0.06017064898426653
aF-0.03826803766538739
aF-0.027338070691079283
aF-0.00025641823892333355
aF-0.035840112322534666
aF0.008602233597110933
aF-0.011263825816115337
aF-0.008321087211177884
aF-0.012207480215608899
aF0.0016755455648516954
aF-0.006535732780209691
aF0.003347210132576536
aF-0.01160894346340423
aF0.0026562138838362955
aF-0.04362131340303643
aF0.11686342792229086
aF-0.010655071969923343
aF0.011218819125683795
aF-0.008299236559515045
aF0.005126305078016383
aF0.0018644991028734148
aF0.022683430932649053
aF0.002516080667528522
aF0.005624561832364253
aF0.02658994773853346
aF0.03633419828603465
aF0.0006566710901278051
aF0.03580245261510651
aF0.09399995558958603
aF0.06282874698888528
aF-0.053617781815630136
aF0.05167221249375062
aF0.0014600702611742016
aF0.02687515026403238
aF0.10365737056738503
aF0.027604112191165417
aF0.12141382624668066
aF0.06889769095194301
aF0.008496036439776382
aF0.035021378142540874
aF-0.004811424246666621
aF0.000489069710343013
aF-0.014087963785751894
aF-0.15830905053132072
aF0.0007916021533628935
aF0.003532842910070619
aF0.17258990455184894
asI11
(lp13
F-0.06698314208016841
aF-0.04729149182907852
aF-0.12017927865354142
aF-0.015235839666388334
aF-0.1052540882689314
aF-0.01805572804613855
aF0.002177113983202868
aF-0.05345381662011485
aF0.05942000152108663
aF-0.06380658592863112
aF-0.03496639712414996
aF-0.03297592590876279
aF0.007919093294593463
aF-0.03235672320765368
aF0.011887358375073332
aF-0.012112599777416274
aF-0.005273185330278182
aF-0.01974367423880348
aF0.005535249332555349
aF-0.008060837726173787
aF0.006096633271376984
aF-0.00671188039597656
aF0.004510244217709142
aF-0.04028887511146049
aF0.10939672779921311
aF-0.0068945225300327245
aF0.005149875242424385
aF-0.006410270754273445
aF0.008054038493297732
aF-0.003276266424696986
aF0.020206510446950758
aF0.00926758907069888
aF0.014901712200433147
aF0.02291653010098112
aF0.03741972743076613
aF0.0036988608811798617
aF0.032860406836745154
aF0.09031545873377309
aF0.06689941221472619
aF-0.050149269588220385
aF0.05032381579701671
aF0.0044512414110432965
aF0.029012624251788913
aF0.1059031375330783
aF0.022754242248709384
aF0.12408889010350459
aF0.06547193836019861
aF0.011318194642012981
aF0.034976785034220914
aF0.0035295109495266145
aF0.0023857750872432982
aF-0.021548182214861145
aF-0.16012871293497513
aF0.002647990788097248
aF0.00034116853694153077
aF0.173193041615793
asI12
(lp14
F-0.06578783670387242
aF-0.03989648178371752
aF-0.12035219722836334
aF-0.02246051499014451
aF-0.10982174817197499
aF-0.01951901290592495
aF-0.0038441285221980435
aF-0.050628930357218195
aF0.057368992369885755
aF-0.05975426982739904
aF-0.03853294709745067
aF-0.03586071268035652
aF0.00879081867953756
aF-0.03401224323548187
aF0.011200182967581114
aF-0.010670914777812821
aF-0.004410644465491639
aF-0.01787145827321357
aF0.0024192007278548
aF-0.005589201580808629
aF0.004077300467488041
aF-0.009003834604135666
aF0.0049249414714131684
aF-0.04071318417055107
aF0.11659405320380717
aF-0.009820397130803635
aF0.009694166974433727
aF-0.008502719033682379
aF0.011761537460216846
aF-0.0053739501636914724
aF0.01995749969421329
aF0.004237072247783265
aF0.014581623788963329
aF0.024782224413091185
aF0.033968710026526704
aF0.007127278887266165
aF0.03116861020656417
aF0.094215867260968
aF0.0687538811847857
aF-0.055144723852906474
aF0.04983971263602471
aF0.0021966704798770994
aF0.024783314594244946
aF0.10440752007190901
aF0.027313460944569646
aF0.12661971745430187
aF0.0656576644051255
aF0.010802909742497042
aF0.04242497609166584
aF-0.0017112107920364797
aF-0.0027225314755825627
aF-0.01588371826568142
aF-0.16110927927959606
aF0.003960081326141527
aF0.0008541326581892858
aF0.17438261109809708
asI13
(lp15
F-0.07060475580643026
aF-0.0502834326114718
aF-0.11769818963170942
aF-0.01659965590163234
aF-0.10666910759798168
aF-0.012968070153843068
aF0.0004904142679103786
aF-0.05249595288709409
aF0.06038812651005693
aF-0.060594120028410525
aF-0.04046838450241732
aF-0.027486949346941156
aF0.005854459637442289
aF-0.02839297584797961
aF0.010430589746164542
aF-0.008321037319277823
aF0.0008813508660634169
aF-0.012622000506706732
aF0.0064882907991812245
aF-0.009188150599112588
aF0.007803672405938934
aF-0.010305749058422638
aF0.00628618170953804
aF-0.0422220412957294
aF0.10838505105821557
aF-0.009467710151320193
aF0.0063600330966630024
aF-0.0029701082129725644
aF0.009971828689317827
aF-0.002814844352768028
aF0.02445814446623504
aF0.006600469821986403
aF0.005887061379878442
aF0.029098686911574537
aF0.03590091798488696
aF0.0018267095772541888
aF0.03419671075256706
aF0.09504686537277181
aF0.061421216980587306
aF-0.05463337509153751
aF0.05446225321593621
aF0.009484144710759758
aF0.02238130950885347
aF0.10444046907513559
aF0.028260839049250527
aF0.12488619675268532
aF0.06334969341836642
aF0.01111695574419964
aF0.042071197060011084
aF-0.004452700217239604
aF-0.004719587901817119
aF-0.0141722580696587
aF-0.1605942422785911
aF-0.004067918575490367
aF-0.003165262880585047
aF0.1742410620219033
asI14
(lp16
F-0.06419753036476208
aF-0.042383077053517654
aF-0.11585932253446085
aF-0.019415974584649956
aF-0.10620600978623825
aF-0.01586908139975927
aF-0.0021380436137927016
aF-0.056434398136720874
aF0.05533598898933856
aF-0.06333528638411856
aF-0.035449072620711126
aF-0.03200274061971583
aF0.00898594510660268
aF-0.030528976944018876
aF0.010955207235883384
aF-0.011208099282457692
aF-0.0018632546179772715
aF-0.01988775143530768
aF0.005443622447420855
aF-0.014141517490606924
aF0.0024666655621518067
aF-0.009153237767803553
aF0.0027559813429218665
aF-0.04440104548281837
aF0.11141032034186614
aF-0.010930670407274478
aF0.012137084559493326
aF-0.007312441558501227
aF0.005351234865341192
aF-0.00040430564830368703
aF0.025309178652653568
aF0.0020757587063049555
aF0.00716715641652675
aF0.022490620753176007
aF0.032875121636699874
aF0.0035826274791490352
aF0.02870573231600207
aF0.09264198002927472
aF0.06174064759319794
aF-0.050105862977382766
aF0.05137620740401012
aF0.006292293565292427
aF0.024998970681281436
aF0.10334638526848025
aF0.023783371882051443
aF0.1186349474858265
aF0.06934197067143234
aF0.0078299298288579
aF0.041146335601964706
aF0.004003257233497871
aF0.003919561298567659
aF-0.014049498409273551
aF-0.1576389082712717
aF0.004623800481459962
aF-0.004973348407077879
aF0.17067653958576356
asI15
(lp17
F-0.06490077845083117
aF-0.04169281441028854
aF-0.11989550423268037
aF-0.021912058810370463
aF-0.10854393400547382
aF-0.018523639009667657
aF-0.003796017932320251
aF-0.05480404861413907
aF0.058768879494849664
aF-0.05974587013612725
aF-0.03325434954254748
aF-0.03561015350349361
aF0.008638899863743544
aF-0.033177189029090684
aF0.012164981852826284
aF-0.010140801387531227
aF-0.005716169414949889
aF-0.015120231420331013
aF0.0031709387335927706
aF-0.014623470702648848
aF0.002731649637163417
aF-0.005356955104301034
aF0.00686898249097522
aF-0.038985164710916995
aF0.10817018838363504
aF-0.009838751291568162
aF0.006136031511317463
aF-0.002132811401140997
aF0.011040624831478269
aF-0.0043761699952410095
aF0.019905426844454583
aF0.005001053671591403
aF0.010673092194867121
aF0.025527171733597937
aF0.03931778182394251
aF0.004496490021585784
aF0.03624230309195153
aF0.09798163907947599
aF0.06877552532130225
aF-0.05106475945246995
aF0.057315152063758194
aF0.0018320646650710499
aF0.022742075872701027
aF0.10718660779092534
aF0.029078185266690534
aF0.12099071292448378
aF0.0689123847465742
aF0.008419286287664583
aF0.03832806797585561
aF-0.0029406641470868682
aF0.0002961341656300349
aF-0.018789085226283052
aF-0.15877179437189265
aF-0.0036082504545227293
aF0.004073560818328493
aF0.1733951472991289
asI16
(lp18
F-0.06754177685846954
aF-0.04553380340167712
aF-0.11769677031009117
aF-0.022749907009864536
aF-0.10790843630071514
aF-0.014738130573156583
aF-0.004049535954857855
aF-0.052457417945779745
aF0.05686434910941695
aF-0.0662922956962591
aF-0.03452916845765991
aF-0.02733049473974801
aF0.007909786982688453
aF-0.03413305218222646
aF0.007194397378927514
aF-0.01347002227465931
aF-0.00871580018207154
aF-0.020715670126197225
aF0.005792539651420588
aF-0.01387928966569835
aF0.007604024931934924
aF-0.010403838984007034
aF0.004149746074105898
aF-0.04354859426035854
aF0.11523385822812304
aF-0.007770273299683861
aF0.009254528569534681
aF-0.006702179010880052
aF0.011306859061610056
aF0.004041069311980734
aF0.015955424265049808
aF0.007870850055784775
aF0.006111118033045691
aF0.026691647203325043
aF0.03663393854481586
aF0.0020177946328367572
aF0.029962282019116385
aF0.09815706630816906
aF0.07052964594477303
aF-0.05796432937111786
aF0.052415348687138166
aF0.003509955045221232
aF0.028170159412056455
aF0.10108790779458683
aF0.030974691200412737
aF0.1268579543633546
aF0.0654944946893004
aF0.01230847262278405
aF0.04165508366382405
aF-0.0028771141054019533
aF0.0037598674357633677
aF-0.01861948118620647
aF-0.16222365315567278
aF0.0023865052108911224
aF0.004462223163070252
aF0.17558324394268135
asI17
(lp19
F-0.06614573148676203
aF-0.04253709917300894
aF-0.11847577355212593
aF-0.01868304182229552
aF-0.10894345744640653
aF-0.01756417560731044
aF-0.0026291207337349534
aF-0.056358092216874996
aF0.06329260755995915
aF-0.05895746332597033
aF-0.037643092093140325
aF-0.0287529259862652
aF0.006811285046475444
aF-0.02930671558009403
aF0.004916864823575956
aF-0.011234886567762998
aF-0.00761341691753243
aF-0.020337307759239028
aF0.0072323440446341505
aF-0.006956703548749333
aF0.003936010708617886
aF-0.009698030010266699
aF0.004427977413269407
aF-0.038429134092151734
aF0.11076073561182921
aF-0.012053817579723305
aF0.005770327683593683
aF-0.0036056879744539
aF0.011766477481081622
aF-0.0003099905750371037
aF0.01972566253127428
aF0.006731320601177341
aF0.014183479681854912
aF0.02263967631490211
aF0.04182363436494597
aF0.005096204854967826
aF0.029645035018352594
aF0.09098913278568702
aF0.06810240174514609
aF-0.04921568858563441
aF0.05254624350031456
aF0.008143752298254363
aF0.026464060695417655
aF0.10640200827168897
aF0.03301941214482557
aF0.12079823957404245
aF0.061126802085140985
aF0.012588022606527749
aF0.040572753745765903
aF0.0007818687779662582
aF-0.0005736751254565841
aF-0.016083473848920823
aF-0.1615947700549673
aF0.001047926171743875
aF-0.0003859799671541696
aF0.17514258267842914
asI18
(lp20
F-0.07059454147064298
aF-0.04712439487441565
aF-0.11662581422939267
aF-0.019617213689671065
aF-0.10440307517574664
aF-0.014874623091754344
aF0.003858177848587066
aF-0.05150184968283956
aF0.05503623573580682
aF-0.058195147000851356
aF-0.03900983602782294
aF-0.02776949970062471
aF0.0054654669992878265
aF-0.03470084733335142
aF0.012539215836217855
aF-0.006615642317564637
aF-0.006608891824512245
aF-0.017157971142877718
aF0.006156512504593352
aF-0.010338148402111237
aF0.008085268835987248
aF-0.0064434390863430824
aF0.0016526985749598425
aF-0.046136147465341955
aF0.11321149257999648
aF-0.008904491278268622
aF0.005393714871538916
aF-0.009738302406839759
aF0.006718431241970652
aF-0.005023583828036805
aF0.01978096968742146
aF0.0050083346609925
aF0.010744031108576746
aF0.026567393716954425
aF0.041190684762340855
aF0.00026548565473652117
aF0.03607801432425443
aF0.09117176139629705
aF0.06143535453782761
aF-0.05289572342708662
aF0.05652218004880087
aF0.008864656858806826
aF0.024894826519495546
aF0.10164018170672352
aF0.03208005387395763
aF0.1223594845386541
aF0.0620004449579576
aF0.014794744730432215
aF0.03499230211535905
aF0.0036810109074206024
aF-0.001045026219163758
aF-0.01856089722982606
aF-0.15894502864473548
aF0.0020583259066312178
aF0.0033619254815168745
aF0.16729271227266845
asI19
(lp21
F-0.0703202129939828
aF-0.042879165146616174
aF-0.11846392461866483
aF-0.02089430215520969
aF-0.1025830361351962
aF-0.013892644635660254
aF-0.0010173644853399182
aF-0.05143280355641278
aF0.059330960254126014
aF-0.06340042739583934
aF-0.03863055902096751
aF-0.03615926981549505
aF1.244497302574413e-05
aF-0.029310936826573056
aF0.009011176617640504
aF-0.007792852586542869
aF0.0008603839014084554
aF-0.0124606426720612
aF0.003072621593956125
aF-0.008891210883303389
aF0.009098400978629245
aF-0.011526479902842827
aF0.008545310298824035
aF-0.04462660931989178
aF0.11208949432208147
aF-0.010205666816570003
aF0.012948353118088726
aF-0.009408998781861263
aF0.009371044462381
aF-0.0029259892317093413
aF0.020112771101684624
aF0.008579227952672557
aF0.011637056419032355
aF0.023343370285690196
aF0.03519217838939563
aF0.005223263784890579
aF0.035411558933737826
aF0.09305774803938399
aF0.061632089366582814
aF-0.0528858588547533
aF0.05198264729258192
aF0.009539131095543352
aF0.0296453762368555
aF0.10240247000913581
aF0.02482859305021572
aF0.12086089447111881
aF0.06276038201948209
aF0.013888521051351518
aF0.042993244546264346
aF-5.583546176694817e-05
aF-0.004403363347588679
aF-0.014885009348056803
aF-0.15920963875293254
aF0.004483708253217116
aF0.0017353699582118658
aF0.17614985633598718
asI20
(lp22
F-0.0678537178767579
aF-0.050505625047109606
aF-0.11668673441951205
aF-0.020721824190447158
aF-0.1100430560548577
aF-0.01477557843521958
aF0.0024288440044991726
aF-0.0535260559005788
aF0.06405948654423803
aF-0.06416043758791552
aF-0.039224768125698244
aF-0.031199418595915875
aF0.0059976681985909166
aF-0.03214967687822331
aF0.006795709409129756
aF-0.010921523538998232
aF0.0006527540828969208
aF-0.018795838966982618
aF0.007924453285794799
aF-0.006574700508242646
aF0.010707022515973965
aF-0.005986951516738475
aF0.009779382075995293
aF-0.039392325577711045
aF0.1101051381107292
aF-0.005407542152858949
aF0.0070328757487198475
aF-0.008889402865071745
aF0.008581459773167231
aF-0.003876494304987055
aF0.018812148475906787
aF0.0035957894840455955
aF0.007395166178060057
aF0.029715925841793042
aF0.03502661415830644
aF0.0031292742808799075
aF0.03775837132954381
aF0.09841212979687634
aF0.06628455187935527
aF-0.05068244400822085
aF0.05929948339178349
aF0.010548767524602693
aF0.02688215610751323
aF0.09856659327350906
aF0.028498880715424293
aF0.12070761109106246
aF0.06927128624026181
aF0.011531228432658691
aF0.04247015209480756
aF-0.001409998848915028
aF-0.0026494297029063525
aF-0.019254646759251353
aF-0.16150068494248745
aF-0.002907275616630077
aF-0.001089008550849246
aF0.17658141689319012
asI21
(lp23
F-0.06895668644439779
aF-0.04409084321254866
aF-0.11883364045800066
aF-0.022377422976922832
aF-0.10442729601930142
aF-0.017833106423378778
aF0.0032542635603170023
aF-0.0564251456763936
aF0.059368629721915575
aF-0.059090840107398915
aF-0.03825384349617823
aF-0.0272545354538996
aF0.0009583099314720953
aF-0.033130021343464176
aF0.010482171365437398
aF-0.010833404690073187
aF-0.007223151248955536
aF-0.014729054779873624
aF-0.00035789965734493023
aF-0.00815627563097726
aF0.009936221056225622
aF-0.006826468984402528
aF0.003578429463387328
aF-0.04330842929292168
aF0.11591654556465483
aF-0.004188350345003793
aF0.010729118057791726
aF-0.006839083034594389
aF0.0065203581462699575
aF-0.0008142835785680103
aF0.021631514868737916
aF0.0008392820701083145
aF0.011080590062098479
aF0.03255068702797566
aF0.03689125652014272
aF0.00422598129641308
aF0.03750969274404276
aF0.09919309320170541
aF0.06634022097907688
aF-0.05664633801742521
aF0.05070404659090778
aF0.003691504735739789
aF0.025169532965528235
aF0.10431779436307576
aF0.030598704284460335
aF0.11895317444170111
aF0.06753329553378305
aF0.012066575651713138
aF0.03887587355740342
aF-0.003662532086161673
aF0.0032708891733058613
aF-0.020411103751306652
aF-0.15816271696155987
aF0.0010295784742546154
aF0.004467998356629918
aF0.17127589013567793
asI22
(lp24
F-0.06598435561379878
aF-0.04287821634268284
aF-0.11848676873239156
aF-0.018782478966611154
aF-0.10384258812117853
aF-0.014693464868518604
aF0.0011119775736575985
aF-0.05109088904420487
aF0.06221294037467317
aF-0.0665789755964479
aF-0.03563204504562621
aF-0.027224907692221776
aF0.009078567593934559
aF-0.036254344504481444
aF0.01014379846547411
aF-0.007692062951823832
aF0.00042964674290487667
aF-0.02140553156769416
aF0.0061884766645383124
aF-0.012947668669296749
aF0.010823900721218716
aF-0.009073954516241017
aF0.004412258708371612
aF-0.0442459686183542
aF0.11266533678202469
aF-0.010442212458521127
aF0.011346357736537221
aF-0.0009176677560193243
aF0.014304358528386792
aF-0.005720320589176703
aF0.022119911049889137
aF0.002931454843712173
aF0.013201080119916855
aF0.025018745331387763
aF0.03299186692272041
aF0.002660768331531737
aF0.03331625215105654
aF0.0920608213435819
aF0.06921373885320953
aF-0.05711746507124838
aF0.0555458882042252
aF0.006775599847007454
aF0.023938159505090213
aF0.10594978817268891
aF0.030483580592388364
aF0.11826237862409285
aF0.06099861023548857
aF0.012418108773549775
aF0.041794262232154336
aF-0.003681809984708768
aF-0.0010791789507356101
aF-0.01842440554795971
aF-0.16072462984098593
aF0.0036176508493538564
aF0.004264175032526373
aF0.17407120875788973
asI23
(lp25
F-0.06796641043134406
aF-0.04135503229322582
aF-0.1163709787416696
aF-0.021778945863698298
aF-0.10731025155093635
aF-0.016246836111798696
aF-0.003912716861285079
aF-0.05577859260181531
aF0.06109641928647006
aF-0.06620787624487671
aF-0.03864627114074464
aF-0.028903920005204496
aF0.0020663168335617148
aF-0.030575085774215072
aF0.005332345700168526
aF-0.009311210432965802
aF0.00032680378185019507
aF-0.01967122640365345
aF0.006924517551380049
aF-0.014664820281580473
aF0.008297219347872782
aF-0.007210875930073161
aF0.002393368057711345
aF-0.03887625630706963
aF0.11472829319154071
aF-0.009469769036552306
aF0.0060454811673101745
aF-0.005534854132642573
aF0.005280738560077113
aF-0.00466328876765145
aF0.022407645740972343
aF0.009151044108984185
aF0.008691576138689133
aF0.027573947282936183
aF0.04119251869760625
aF0.003222791611151605
aF0.02876379126069814
aF0.09475543203917233
aF0.06485931176345901
aF-0.051165075131287444
aF0.05278307921205682
aF0.006752746012021512
aF0.02531021852146524
aF0.10598169696227773
aF0.023660354458875366
aF0.12391103017224811
aF0.06584430276710494
aF0.012747347205787594
aF0.03496644438995876
aF-0.004039619725190875
aF0.0017204226887270091
aF-0.01913657706564419
aF-0.16149780705902195
aF-0.000555546672328351
aF-0.0001494341367255137
aF0.1742688865797658
asI24
(lp26
F-0.06738694352053105
aF-0.04274253097342864
aF-0.11772603457330262
aF-0.015127340605629633
aF-0.10570820131501632
aF-0.016297606883102063
aF-0.003478900026445389
aF-0.057137266074107795
aF0.06328652803477794
aF-0.06038658277843137
aF-0.039144384795780515
aF-0.034979737908671184
aF-0.00029245602906480397
aF-0.03617266660907266
aF0.004827519351009565
aF-0.009182614728227689
aF-0.002717084281216315
aF-0.014795332589831012
aF0.0036299433964877823
aF-0.006529611672846704
aF0.005171367275688459
aF-0.01124177501964112
aF0.004191890282780679
aF-0.04211863672171539
aF0.10933090253154933
aF-0.013147812788923291
aF0.004685510572951194
aF-0.0017189750424745033
aF0.009807356445515713
aF-0.005502923257621102
aF0.023416077707413167
aF0.009307955264924575
aF0.007077729368924596
aF0.029598089377913583
aF0.034172778698017714
aF0.0023013410826886152
aF0.03355101663692502
aF0.09660768171425232
aF0.06973520917372386
aF-0.05777104754996392
aF0.05481984214535749
aF0.008223207962355662
aF0.028186837327008985
aF0.10148438642002165
aF0.028162218666032038
aF0.12612368113323602
aF0.07001912470150705
aF0.010569189215858053
aF0.038164046690338585
aF-0.0006819950422299951
aF-0.004911566969923173
aF-0.018134787704145693
aF-0.16117150776645778
aF0.0034555958682385875
aF0.0013192857318759996
aF0.17171522629196992
asI25
(lp27
F-0.06727596996407005
aF-0.04427015959299323
aF-0.12010626074647804
aF-0.01464252639318429
aF-0.11021778191081782
aF-0.014291659648368692
aF-0.0017743585542807521
aF-0.05777817232670947
aF0.05979710398154837
aF-0.06257238177723182
aF-0.03714620174987236
aF-0.02731038867998675
aF0.008108692427945425
aF-0.0287966596521802
aF0.005902481783947147
aF-0.011549645385223095
aF0.0002755143163264443
aF-0.015972847166943277
aF0.002157709521228108
aF-0.006801331793540653
aF0.005999293943076019
aF-0.005661692034716601
aF0.011297935371592715
aF-0.04568639577485034
aF0.11622843783865247
aF-0.004896670010953476
aF0.01291595197200876
aF-0.010555871031205801
aF0.007108010791387863
aF0.004292818816930526
aF0.01847877627619911
aF0.003891845152776583
aF0.011896857749272311
aF0.030815756467711772
aF0.04035819673625083
aF0.00391644540657064
aF0.03678357626631399
aF0.09477391951224269
aF0.07045899543655117
aF-0.05006937174142778
aF0.05362951215082791
aF0.0026925742705273276
aF0.022696399863930506
aF0.10443545268457008
aF0.023469923165861592
aF0.12574044796599812
aF0.065462987913326
aF0.01162608869813381
aF0.03713869033453269
aF-0.0031937220730773918
aF-0.002937969120478263
aF-0.01804948817770225
aF-0.16254678125039018
aF0.0014098950537663358
aF-0.002820165799855955
aF0.17140633223172444
asI26
(lp28
F-0.06999758073580402
aF-0.047264499279413195
aF-0.11608465425861159
aF-0.019672315525025963
aF-0.10553078900252146
aF-0.0192269199416688
aF0.00027835335019226804
aF-0.05702513025138303
aF0.05882593510890486
aF-0.06041715109392973
aF-0.0337766412798098
aF-0.030409855381202482
aF0.001790234507019431
aF-0.02823894591420656
aF0.007020100265061039
aF-0.008164422724414849
aF-0.001494518596664567
aF-0.017508319422770924
aF-0.0008493048947575722
aF-0.0097884249222313
aF0.010990061482911227
aF-0.010070497959756617
aF0.010164074098727716
aF-0.04563475002218553
aF0.10945723751987116
aF-0.007354712699736004
aF0.007948305141584408
aF-0.007949436641046614
aF0.010158380685656377
aF-0.0032020072633602674
aF0.016310730910259606
aF0.006943900511544494
aF0.005889019080338319
aF0.02818560612881478
aF0.04271004406894976
aF0.007155189726500923
aF0.03297374778296119
aF0.09174186788821674
aF0.06405991301201384
aF-0.05458639524419362
aF0.05783986255559901
aF0.0025807619357750993
aF0.026615371748975172
aF0.10695565998460162
aF0.026583914287954927
aF0.12441072197824173
aF0.06622578316127342
aF0.009916997694372865
aF0.036530317738425785
aF-0.00394572624485651
aF0.0022802699878372587
aF-0.013571001494409393
aF-0.1589780585069912
aF-0.0004839492040309017
aF-0.000618974925422892
aF0.16983238254795943
asI27
(lp29
F-0.06462775370635555
aF-0.04114719895580596
aF-0.1162984493220452
aF-0.02251440518300179
aF-0.10834884049352987
aF-0.01562688402370427
aF0.0014254590320020727
aF-0.05103101712633458
aF0.05950002363692949
aF-0.06580722632492882
aF-0.038121488669702656
aF-0.034851544302916114
aF0.00042601728413918326
aF-0.02853460670693927
aF0.009886887932191201
aF-0.008155528883808763
aF-0.003670774094696418
aF-0.019277076719349008
aF8.33226382110956e-05
aF-0.010916618387917963
aF0.002865689880737541
aF-0.009294130230393176
aF0.003568582510234691
aF-0.04373234769217492
aF0.10866596392930061
aF-0.012638414249394051
aF0.012894048641589027
aF-0.007225226141900058
aF0.005325403865961625
aF-0.002524996037678659
aF0.01698713587908145
aF0.007409223035841897
aF0.013663566708138146
aF0.02350280097933929
aF0.040293817395386886
aF0.004742242786693756
aF0.03365908425126899
aF0.09038638081845374
aF0.06970703194135114
aF-0.04979944356093842
aF0.05833836262976532
aF0.011043608867181656
aF0.028977737151882548
aF0.1033260257565664
aF0.0295243306526443
aF0.12198542804876567
aF0.0616046173097528
aF0.0077790876955933915
aF0.03819428060467838
aF-0.004949363386487185
aF0.001970932728507963
aF-0.015659431188024223
aF-0.1605778229405973
aF0.00434985474473404
aF-0.0037962284096209153
aF0.1749554354126118
asI28
(lp30
F-0.0669422619145358
aF-0.047855278468186054
aF-0.1159965067352257
aF-0.017119522065232366
aF-0.10961331473146557
aF-0.01125232506216849
aF0.0038135898537482405
aF-0.05192144544752404
aF0.059107967174404724
aF-0.062168349913629184
aF-0.0382612484295318
aF-0.030688512740401578
aF0.004611151450393096
aF-0.028225257733391313
aF0.007408485144941509
aF-0.0053902171625861035
aF-0.006096678150598599
aF-0.017970865565240836
aF0.006311534989100188
aF-0.012817481573593912
aF0.003785084571267758
aF-0.011053171456366653
aF0.0016871006900772618
aF-0.047170651496389764
aF0.11669381058159135
aF-0.01234961682485943
aF0.004948623342447578
aF-0.008566845305640157
aF0.010094765691827115
aF0.002069823946364989
aF0.02533187014063436
aF0.008489111786223887
aF0.014455606743047954
aF0.02519233801408766
aF0.033415985295375844
aF0.007215578202737128
aF0.030709643049099258
aF0.09646000346975836
aF0.06944449801376845
aF-0.051587083196861235
aF0.05920061049868089
aF0.010849257324552367
aF0.022308099874036372
aF0.10218536658370561
aF0.023175235010112826
aF0.12015646987725653
aF0.06484537947292777
aF0.008506509150929462
aF0.04391463966396773
aF0.00028332345935383143
aF0.001549833287493506
aF-0.01927194596571141
aF-0.16081241834998117
aF-0.0009594595382081973
aF0.002216765615831294
aF0.17585214198083704
asI29
(lp31
F-0.07158321461628811
aF-0.04924558826544088
aF-0.11662319599111662
aF-0.022358281075035513
aF-0.10489090539249782
aF-0.014025507824773544
aF0.002456576612306166
aF-0.048541865785067015
aF0.05453589029437045
aF-0.06174491733884037
aF-0.03993897045614496
aF-0.031059866934405583
aF0.0013436137739856425
aF-0.03572684242622287
aF0.008161235446303136
aF-0.013342966168284145
aF-0.0001619448797383189
aF-0.013396270431521251
aF0.0031968217768280757
aF-0.013864008186891189
aF0.0032570985932630376
aF-0.008513731990730371
aF0.005667322205329319
aF-0.04141000704970565
aF0.10810149769818272
aF-0.010573680040444428
aF0.010056076965709159
aF-0.007782426604326873
aF0.008886900036259957
aF0.0036947695153300214
aF0.01717531774314372
aF6.03830882477001e-05
aF0.006913556366723286
aF0.02926408961501944
aF0.03848110192278175
aF0.006114909978824851
aF0.028184132599688314
aF0.09624762855071439
aF0.0688976383633289
aF-0.05274796791836296
aF0.050764357300451445
aF0.007786748485529404
aF0.022525009654586595
aF0.10224063802755379
aF0.027524869060027494
aF0.1222567714068149
aF0.06351480943974934
aF0.01495732309111881
aF0.036067306703054546
aF-0.0023801884180409986
aF-0.002560759076642771
aF-0.017972700455833924
aF-0.15977731104210305
aF-0.002296769423387827
aF-9.814401740117089e-05
aF0.16803984819621604
asI30
(lp32
F-0.06942586970947781
aF-0.04813439393613867
aF-0.11855085773760998
aF-0.016323351248118505
aF-0.10763119634271992
aF-0.014855404064554597
aF-0.00213100016276691
aF-0.0507050245652331
aF0.06357733113897295
aF-0.0625378922442002
aF-0.03334778618619687
aF-0.030499300324486694
aF0.0056505946429524
aF-0.03345382543256459
aF0.012455989725997575
aF-0.012114078893442258
aF-0.008160777998573612
aF-0.016279563736124106
aF0.006126940446218672
aF-0.0071277458525545465
aF0.010288420134026605
aF-0.013062044002172668
aF0.008425015974249194
aF-0.044267820029536734
aF0.10974457748372644
aF-0.005999522394086898
aF0.006843099329671902
aF-0.0074307464845738865
aF0.004578262709976811
aF-0.0021750448948978035
aF0.023025266558864773
aF0.009071206136163176
aF0.009351255188635756
aF0.03204635034797878
aF0.043305111581355166
aF0.004312688618623734
aF0.028508570017455007
aF0.09684508309010964
aF0.06868993962307728
aF-0.05034522834258762
aF0.05806273919626138
aF0.010689762068032098
aF0.030667053804110132
aF0.09961011228761775
aF0.02543811906189149
aF0.12181661189847302
aF0.062124466318111575
aF0.009829526224175936
aF0.04279898799188578
aF0.004529074965071677
aF0.0036318575800555245
aF-0.01632308306099466
aF-0.1600198380833099
aF-0.0008987434903007929
aF0.000424418589311676
aF0.17640155807392816
asI31
(lp33
F-0.06769225498214132
aF-0.04179845839170993
aF-0.11856076545918506
aF-0.02262199205172836
aF-0.1099150170513902
aF-0.011195776702911957
aF-0.0038511853714571624
aF-0.0515340167526165
aF0.056205283721437474
aF-0.05996836336313426
aF-0.036849694430702684
aF-0.0334506655053029
aF0.006666984658511196
aF-0.03129675136647584
aF0.005173548177900371
aF-0.008607780324011412
aF-0.002981970070342673
aF-0.02146481276331436
aF0.004399485188790371
aF-0.008104443045057126
aF0.009184504368185445
aF-0.011401031932575077
aF0.007040512329651021
aF-0.0440181133920538
aF0.11191751015804643
aF-0.0076621738560074554
aF0.008556044265636973
aF-0.004264151357401753
aF0.006757543625535773
aF0.003423228787775453
aF0.024478418208961683
aF0.006316083119378413
aF0.007442359301936268
aF0.02486843796207494
aF0.04251501525720279
aF0.005892486514693676
aF0.02977637503395055
aF0.09900983776744195
aF0.06304036095897766
aF-0.052128647486548774
aF0.05123272147554895
aF0.008505607831454834
aF0.030093640027219946
aF0.10286442506724781
aF0.028720715551552513
aF0.1212498192307258
aF0.06755859684976678
aF0.013747715112181112
aF0.03872402722742345
aF-0.0035767885790977585
aF-0.004186991184674429
aF-0.017916625335780378
aF-0.16022419877267052
aF-0.0004076935950161602
aF-0.0005411753987519002
aF0.16953548333371907
asI32
(lp34
F-0.06840761592812382
aF-0.041868841783019625
aF-0.11856979496039195
aF-0.017661677284913663
aF-0.1054913898705015
aF-0.011258308405440403
aF0.0033145644392067776
aF-0.05553153440575525
aF0.05742069099747106
aF-0.06387288940962803
aF-0.03487748583769487
aF-0.032943370944229305
aF0.006267458634383915
aF-0.028998633687002714
aF0.006954725519147479
aF-0.011500338521611309
aF-0.0010631101114898247
aF-0.020703092443324123
aF-0.0012402871861881418
aF-0.011556603912989351
aF0.008372333839304044
aF-0.014191616077430838
aF0.007901414557555778
aF-0.04132532558523404
aF0.11741620798760181
aF-0.006579228421776774
aF0.008230986797538234
aF-0.00867440647808366
aF0.007301526169005274
aF-0.003594941799175483
aF0.020232257135549308
aF0.00937856113859937
aF0.012753465346934348
aF0.02942833317308153
aF0.041065436233866534
aF0.0029859433803754764
aF0.03529715584852393
aF0.09181082773447245
aF0.06149034137135378
aF-0.05337007139655874
aF0.05535172114587805
aF0.004551496675954263
aF0.02147415210519272
aF0.10734563149816426
aF0.027626089885829076
aF0.12076894433827377
aF0.06265277020565518
aF0.013469842137922
aF0.04284620433515796
aF0.00235732630314168
aF-0.004986498511583755
aF-0.01772325079051365
aF-0.16041360556630152
aF-0.004404041181631836
aF0.004928812960654621
aF0.1723357702055134
asI33
(lp35
F-0.06852288798713584
aF-0.0471144832596983
aF-0.11892410128459131
aF-0.015321006982220553
aF-0.10617677386949087
aF-0.02038000238310536
aF-0.001987413188496833
aF-0.05757619611528155
aF0.05959007193069951
aF-0.06022634878948895
aF-0.03743345032704698
aF-0.02975738366560067
aF8.999323586422562e-05
aF-0.03544352593245651
aF0.005845582487185266
aF-0.005832397039155576
aF-0.004141305355082156
aF-0.01258711308756772
aF0.0011497074501476317
aF-0.008985856106747138
aF0.0061901416142772295
aF-0.011644707450270594
aF0.00918852584622099
aF-0.03959734643560492
aF0.118306058896384
aF-0.008103932498741756
aF0.004627351539856836
aF-0.007796392295835379
aF0.013454148888283
aF0.0023960827364015113
aF0.015908169554018373
aF0.0028719124435995433
aF0.00960405761606342
aF0.026413460731228102
aF0.034320497424248274
aF0.006992003115019544
aF0.03762748146483808
aF0.09863512430026812
aF0.06915627119002744
aF-0.052578541556452585
aF0.05545731537366202
aF0.010945575969651677
aF0.030340126852919754
aF0.10296504131393742
aF0.02565372035080242
aF0.12509910184524686
aF0.06385789351148498
aF0.008443708621645432
aF0.041343522700938794
aF-0.0017910460121325288
aF-0.0026185812011201093
aF-0.013811563270032487
aF-0.16011957265262589
aF0.0007369734386954296
aF-0.002512255233464483
aF0.17089981751657135
asI34
(lp36
F-0.07030354831759346
aF-0.04674922850734555
aF-0.11518555186835022
aF-0.022897864555899223
aF-0.10902272220334142
aF-0.014965422116303749
aF0.0018279842916948956
aF-0.05437995536573769
aF0.062412744579645955
aF-0.06010534369239771
aF-0.034680315412149436
aF-0.033919736821478204
aF0.005417719454979153
aF-0.034463357781715984
aF0.004296840636866857
aF-0.007167190181491234
aF0.0008622913396580545
aF-0.013757244321077637
aF0.00791370276803929
aF-0.006865291004681452
aF0.006386109194212357
aF-0.012010501481971395
aF0.006221896319875861
aF-0.03968916139630128
aF0.11398602935924206
aF-0.010791677825324315
aF0.003976551574560645
aF-0.009695083188281536
aF0.004657671821877226
aF-0.0013992635579718126
aF0.020123662186212164
aF0.00346972937733283
aF0.007731911166290662
aF0.02641352685485221
aF0.03710707899472431
aF0.0060308977152260185
aF0.03194502520359341
aF0.08954686274830588
aF0.061392832566184094
aF-0.0560476525510671
aF0.05094695543808335
aF0.008891662229011098
aF0.024797038119389065
aF0.10219466528333099
aF0.026943952133469767
aF0.12459350181718401
aF0.06575577742057201
aF0.011943541950045124
aF0.04117921565321241
aF0.003217148172762264
aF-0.0007971232877024763
aF-0.02220353649148592
aF-0.15847587503737873
aF0.0028744891924654247
aF0.0035611192487272213
aF0.17168545108426458
asI35
(lp37
F-0.06569963582595569
aF-0.04035977287733659
aF-0.11933742022480705
aF-0.02039491817533297
aF-0.1084809229183802
aF-0.015042374293917657
aF-0.0036604362530112855
aF-0.04890328513383889
aF0.058358205318011204
aF-0.057205827512280996
aF-0.03334538750097819
aF-0.02657434001588255
aF0.008850117545461033
aF-0.035615861033459956
aF0.010192787343010037
aF-0.012398843678972652
aF-0.008172637871851227
aF-0.019290936162942914
aF0.008079244441582655
aF-0.01121069673852872
aF0.004115781813264179
aF-0.01397257541442534
aF0.008544619267549198
aF-0.042389283169354475
aF0.11439251029694174
aF-0.013762183802530376
aF0.010444583651188966
aF-0.008436211056844204
aF0.004936104455765216
aF0.0007302146356034847
aF0.018737614734453744
aF0.004837555391021717
aF0.015078756843383008
aF0.03206117351766093
aF0.03854028668284825
aF-0.0012250898926207587
aF0.03767762723949588
aF0.09210094785137794
aF0.06582260933471569
aF-0.048028137667674796
aF0.05740820609948498
aF0.0012178490677061209
aF0.028910536221737077
aF0.106880516845531
aF0.026927990629678707
aF0.12053659016171117
aF0.06071198816226542
aF0.008600852993872414
aF0.03542401773317615
aF0.004986175669068085
aF-0.003762766831515804
aF-0.016739854872072416
aF-0.1577470366863592
aF0.0024261275567291113
aF-0.0031906284599181652
aF0.17325346480932302
asI36
(lp38
F-0.06883715504325001
aF-0.04528392794915489
aF-0.11740999011401011
aF-0.022007746741100818
aF-0.10869912565977355
aF-0.017619897039507556
aF0.003402738525459829
aF-0.049190491704434305
aF0.06398022420903278
aF-0.06346108613770428
aF-0.03330390561353576
aF-0.03357741855334031
aF0.008172529029056567
aF-0.029175020316322693
aF0.012407730378389603
aF-0.009688455537072755
aF0.0009998961845088924
aF-0.014301137895997034
aF0.002068183420362804
aF-0.008681908091167223
aF0.0026629090858212136
aF-0.006718322323591494
aF0.008703455377191473
aF-0.04475406554703726
aF0.10946230043116012
aF-0.012999035715735378
aF0.010122888162075336
aF-0.001570505055287014
aF0.009720870564280249
aF-0.0008620762617311376
aF0.019413232608855663
aF0.005034698654784157
aF0.009769090836835116
aF0.02276344684879941
aF0.035958932919163446
aF0.0029067074427162106
aF0.0368937267039491
aF0.09481414997462849
aF0.06766175297962827
aF-0.0572038535588855
aF0.05160077346198204
aF0.006080838109316653
aF0.021901914776698665
aF0.10103916351397464
aF0.024919472866094357
aF0.12043843299666779
aF0.06344203273618086
aF0.013535904211617936
aF0.04044952223246706
aF0.0047749266616903974
aF0.002254197368239355
aF-0.020218956562407374
aF-0.1602953462547014
aF0.0023452886900557617
aF-0.004396384762678298
aF0.17255323947366502
asI37
(lp39
F-0.07119786273026892
aF-0.04678240953487194
aF-0.11926266890646949
aF-0.016686686179409355
aF-0.10951443053305784
aF-0.011621156560978802
aF-0.00042270601773639565
aF-0.052669415265600705
aF0.062521412082312
aF-0.06099600225661802
aF-0.033449356736148426
aF-0.035494770705279496
aF0.005059790927821261
aF-0.030195381615266945
aF0.012855421132156137
aF-0.013094922417875195
aF-0.007689718535706813
aF-0.016061405674694423
aF0.007430064519137372
aF-0.0055521108199974994
aF0.011102385139305842
aF-0.008976955412982818
aF0.004812398228295616
aF-0.03920416491543531
aF0.11673475095577701
aF-0.005052455357628869
aF0.005317942236055326
aF-0.0008040947447566469
aF0.012985425763298468
aF0.0002489789738296507
aF0.02106129098877306
aF0.0006607011068914623
aF0.00956349221624404
aF0.023151390048710415
aF0.03904236071766508
aF0.0023334848420110163
aF0.036682058983886594
aF0.0951809580363009
aF0.06411261264705233
aF-0.053350506061625246
aF0.0523458749757247
aF0.009177998741707615
aF0.028938811189648566
aF0.10119966566511965
aF0.02894828936554474
aF0.12321361165155419
aF0.06865225617921955
aF0.01332740029296912
aF0.03734672789565578
aF0.004894255313201334
aF-0.0015552764892609269
aF-0.020691993326740737
aF-0.15902798226455978
aF0.0006003434380823418
aF-0.001580998129183115
aF0.17013285152213456
asI38
(lp40
F-0.06610227158392101
aF-0.04642577018688428
aF-0.11920949018039259
aF-0.020096286918423707
aF-0.10993735158676433
aF-0.011230517306445928
aF-0.0019197769474118994
aF-0.05485142341297019
aF0.059181151273748615
aF-0.062236136578726474
aF-0.03803151684469294
aF-0.027367812445174357
aF0.005252794689616653
aF-0.035565863745706174
aF0.013933015690090964
aF-0.006166766932947825
aF-0.000901609485702424
aF-0.02000774767522573
aF-0.0003842310609325651
aF-0.006396544775021459
aF0.01049317154952176
aF-0.012677472543318876
aF0.0021257010574388777
aF-0.039433494201545544
aF0.11673668672163408
aF-0.009481596027013877
aF0.008010249366749538
aF-0.0010929844398329636
aF0.013303521307699344
aF0.003738006328403934
aF0.02214188285522882
aF0.003962773633831912
aF0.007730929839263057
aF0.0294849649133451
aF0.03884362638155144
aF-0.0005942693220526426
aF0.02835387918490257
aF0.09896078544802982
aF0.06903320635298307
aF-0.04821675315014123
aF0.04991875137932225
aF0.0067766196654133245
aF0.022196036708803362
aF0.09906259340919293
aF0.022681304766767402
aF0.12287543633699556
aF0.06631845756199985
aF0.009759575315386633
aF0.04364833315516283
aF0.004283073098458291
aF-0.0026092905288565673
aF-0.021946038796435967
aF-0.1609994702584069
aF-0.0041445695367789
aF0.0019133726015500747
aF0.1761486030078458
asI39
(lp41
F-0.0708149814043982
aF-0.04127201762949873
aF-0.1181003075695641
aF-0.01848710232674968
aF-0.10691317421922578
aF-0.019035183977930296
aF-4.686538483128663e-05
aF-0.05011314845612615
aF0.06208199909434154
aF-0.06118052772994273
aF-0.03909017447475733
aF-0.03441342792693376
aF0.005304670141457711
aF-0.034043791775705205
aF0.007860127642852436
aF-0.005841889000214078
aF0.0006394929699559157
aF-0.018731335470945448
aF0.0033076364556679726
aF-0.013552589963269683
aF0.007408119931175946
aF-0.014354776971548858
aF0.010373273079305361
aF-0.04527836576890671
aF0.11549402911775693
aF-0.006981286183938192
aF0.0076481984005977235
aF-0.00934640304670402
aF0.011904408419139166
aF0.0012044588011901108
aF0.016844139312336415
aF0.005385916329893796
aF0.014468178429407699
aF0.03162115111892891
aF0.042672050459116866
aF0.008231502918726733
aF0.036679249141403365
aF0.09556109034404509
aF0.06522558088336355
aF-0.0524613038118942
aF0.05895997420345759
aF0.006865159104453024
aF0.030572085759813274
aF0.10610632392526283
aF0.028938848428397192
aF0.12254831245447718
aF0.061946424771871546
aF0.014396321239332632
aF0.03557459656195862
aF-0.0019240857482010578
aF7.589350704102488e-05
aF-0.023288590105354223
aF-0.1599181264565233
aF0.00016689117611566444
aF0.0008389310676435857
aF0.1689847193592166
asI40
(lp42
F-0.06786805394916097
aF-0.044239036066458494
aF-0.12009701355251465
aF-0.018193785766709412
aF-0.11090768639783959
aF-0.01853264411812839
aF0.004364041957039798
aF-0.049928606965861454
aF0.06370965888010686
aF-0.06520406723648328
aF-0.036608438030903745
aF-0.02823813697166723
aF0.008085642008405416
aF-0.032470903863145724
aF0.008184167728251802
aF-0.012549780176693505
aF-0.008669080306689076
aF-0.016607726141254997
aF0.0020058667351922103
aF-0.012023727793442128
aF0.008723542139311282
aF-0.007265035601008538
aF0.008867772561016004
aF-0.04086528959189604
aF0.11500071549270055
aF-0.004597291522427745
aF0.010421323673459057
aF-0.007287493802152696
aF0.007728305390058222
aF-0.004041921391354389
aF0.024814924099180697
aF0.0005480938098564554
aF0.014337312141353057
aF0.0322742099120191
aF0.037606657066165824
aF0.0029739480209404535
aF0.029369305349502467
aF0.09946329170601728
aF0.0699982272855039
aF-0.05470393744883623
aF0.05672238480868048
aF0.009348091312834346
aF0.024619828597316113
aF0.09979575425576366
aF0.02383697242398202
aF0.12279095691005955
aF0.06951686373446872
aF0.011907378473737002
aF0.03850986557422152
aF0.003340369621742571
aF0.00017823564471166405
aF-0.01785512461689489
aF-0.1596729155004421
aF-0.00103651420068505
aF0.0009815404088579218
aF0.17288094100751325
asI41
(lp43
F-0.06895912570614507
aF-0.04045818767954347
aF-0.12063963457067137
aF-0.021654740685650913
aF-0.10613419619068228
aF-0.01683117067717042
aF-0.004311680566225815
aF-0.05383810475535162
aF0.06308646665051731
aF-0.06007954001507843
aF-0.037572050561131595
aF-0.035330830501829044
aF1.9890605776036905e-05
aF-0.035622493482442084
aF0.011363449666775648
aF-0.0075273306197251545
aF-0.006288359941353676
aF-0.017346730053267034
aF0.007376180550808801
aF-0.01293370065413744
aF0.0072139559787993334
aF-0.013464335697489218
aF0.0027053856062940647
aF-0.03933266493966934
aF0.11196188985038275
aF-0.00883194911889099
aF0.006884561980681963
aF-0.0015580578782165974
aF0.011375547928860101
aF-0.001279053785009507
aF0.022262172484395465
aF0.006779342225763563
aF0.009644145399289922
aF0.0317079871970339
aF0.033889818855381205
aF0.0061837125957585875
aF0.03705546505076599
aF0.09366952668621963
aF0.06694814839422741
aF-0.04957649950575006
aF0.05350674234124107
aF0.011100217820635949
aF0.030999633962939508
aF0.10837775586930619
aF0.025192727613012486
aF0.12664387669686783
aF0.06813827084770774
aF0.010555241597853812
aF0.03868965087274183
aF0.00019132140830526822
aF0.0038760969632007105
aF-0.016309329344379283
aF-0.16065932989984177
aF-0.004004213340731428
aF0.004448427805075406
aF0.17030370046326954
asI42
(lp44
F-0.0689103004164824
aF-0.04272041579203753
aF-0.11676707817745424
aF-0.016887212064285815
aF-0.10698946647306679
aF-0.012413415028256781
aF0.0030676672937848134
aF-0.049507911637404534
aF0.05672638846244424
aF-0.0667321566803308
aF-0.032433072717475066
aF-0.03142505811972248
aF0.0024174008811826005
aF-0.031204034220423102
aF0.010673746835746737
aF-0.010199962618783585
aF-0.004105447967099252
aF-0.016131927017544942
aF0.007772292321265209
aF-0.011362070107569327
aF0.006603941087675958
aF-0.0067828695118425176
aF0.0023725475629969334
aF-0.04544030172574491
aF0.1087630392240474
aF-0.007469681280004805
aF0.011003104559009094
aF-0.0025768239072555352
aF0.00660692021058652
aF-0.003996437029191157
aF0.019579845112880034
aF0.005863175370372358
aF0.013916656421447484
aF0.029245048626844614
aF0.0350447583845116
aF0.005515491415019269
aF0.028550454562737467
aF0.09370935014670143
aF0.06810966637232119
aF-0.05688081138601211
aF0.05388017081475084
aF0.0020628469306471216
aF0.030426505172323506
aF0.10556531761167172
aF0.032452570321971054
aF0.1199351585297819
aF0.062465697707713194
aF0.01305638434548714
aF0.03449434694149791
aF0.003696469893101335
aF0.0029951780844519093
aF-0.022055589183600833
aF-0.15970562776502276
aF-0.004825483765313638
aF-0.0035928207533542102
aF0.17190988006988067
asI43
(lp45
F-0.06959056388038776
aF-0.045634351624088736
aF-0.11745673960844832
aF-0.0198246222438533
aF-0.10479502089601832
aF-0.01235741689875593
aF0.0028397274643218824
aF-0.05660923828838738
aF0.06272246881298346
aF-0.06236842240687166
aF-0.03888192836701097
aF-0.02800020952648437
aF0.007850987888836534
aF-0.03595112817369199
aF0.01310833061885908
aF-0.005752794167140556
aF-0.001678590880857994
aF-0.015502651822660276
aF0.0048818288400193114
aF-0.009278451261593223
aF0.010301023064222618
aF-0.012468112142316422
aF0.002733739959538157
aF-0.045214361932275696
aF0.11559079809185757
aF-0.006943133938856316
aF0.0050482811674269585
aF-0.006723419261543153
aF0.008960272994529032
aF0.0035095024728273886
aF0.017778719194833932
aF0.0064384547740514025
aF0.008162840191218107
aF0.02712582810000549
aF0.0357192635205311
aF0.003152960672854861
aF0.036598322776416434
aF0.09553099083428007
aF0.0611970226651824
aF-0.053137536655389415
aF0.05215745943743766
aF0.007093343039437404
aF0.022962670226360542
aF0.10751039080312788
aF0.024229031174582607
aF0.12390085502129382
aF0.061600653553406014
aF0.00871247073868269
aF0.03784813041392309
aF0.0032952994612650954
aF-0.00236809814948342
aF-0.015236681081128637
aF-0.15979643356123036
aF-0.0023487674706474805
aF-0.0004824659168718026
aF0.1702778912774681
asI44
(lp46
F-0.07151721978837372
aF-0.04659282612404655
aF-0.1154808924894204
aF-0.021834289930227777
aF-0.10449022925852933
aF-0.015234047931271444
aF-0.0012973831659495445
aF-0.0552948153892168
aF0.05482487139924288
aF-0.0642003999149351
aF-0.03905136287792856
aF-0.02918622490132641
aF0.003014133430958769
aF-0.03158140747728538
aF0.005726897816655897
aF-0.01389556295263874
aF-0.000990533379258603
aF-0.020275295355171315
aF0.008253393343173054
aF-0.012465909413325963
aF0.0028766326739334417
aF-0.0064620771129470875
aF0.003867844944559303
aF-0.03990999804969947
aF0.10992264221419552
aF-0.00574872480905594
aF0.013210231138167472
aF-0.009780423604681666
aF0.01114883210995081
aF0.0019487692758741071
aF0.020029199805493617
aF0.009191038584957612
aF0.014354177681237553
aF0.022319231128980547
aF0.03699334073711225
aF0.007951379145636003
aF0.030837169357728803
aF0.09509877401064014
aF0.06846217633678417
aF-0.0509582649945439
aF0.050038255342310545
aF0.010776171180863676
aF0.02771626899457552
aF0.10841089373592806
aF0.033125360953634886
aF0.12161538495220306
aF0.06564476677081264
aF0.015201226927579758
aF0.04438796558462213
aF0.002345840683399511
aF-0.0033575430867657428
aF-0.02216056649223071
aF-0.16119845316064266
aF0.0025745672609447717
aF0.0031942660546507213
aF0.1738995669385095
asI45
(lp47
F-0.06980147249844598
aF-0.042585060838681986
aF-0.11855311586694074
aF-0.019338158728147196
aF-0.10905728755636934
aF-0.01745834768466493
aF0.004610481078453587
aF-0.05752081150362119
aF0.05567876367550101
aF-0.057982079881409666
aF-0.0371598720955997
aF-0.03040798846716785
aF0.00043331602643169575
aF-0.030027619674311216
aF0.009022704541799657
aF-0.01439259104582062
aF-0.003173867003818542
aF-0.020232185218634253
aF0.00704988413474917
aF-0.007681392608298569
aF0.00462660328473944
aF-0.0048455956962973
aF0.004199037710043203
aF-0.04071559027473573
aF0.11480226548296561
aF-0.009077747400133354
aF0.008295750422064421
aF-0.009818718295423363
aF0.006207841850187118
aF0.002009475149715438
aF0.016794115727343524
aF0.008314796917520588
aF0.008979827341617053
aF0.029873840431452154
aF0.03598893475672587
aF0.0027348720559510174
aF0.030109027070951686
aF0.09739195213440996
aF0.07092228237618559
aF-0.04877899182154044
aF0.051148190231492134
aF0.01123450400867756
aF0.023170558808918135
aF0.10335133694089896
aF0.02708198606412211
aF0.12417606470656539
aF0.06879953088228938
aF0.013690962683589518
aF0.03818807461192624
aF-0.0006525635138147106
aF0.00035998934286637083
aF-0.017424934892944048
aF-0.1613509594040956
aF0.0024126024387005913
aF-0.0045918906189977675
aF0.17310658127275708
asI46
(lp48
F-0.06984500522960904
aF-0.04948842804285278
aF-0.11584072872385578
aF-0.021971319667139135
aF-0.10877354660566231
aF-0.011856660598859028
aF0.0027510230947644532
aF-0.05589027634895858
aF0.063348365215554
aF-0.05954559607884362
aF-0.038022394816302214
aF-0.031560579180863794
aF0.007234024971777434
aF-0.03598824553956015
aF0.012515192995832997
aF-0.013029300219355874
aF-0.0027631072677120165
aF-0.02114418391039142
aF0.00205355745251521
aF-0.01434540858412079
aF0.012194674633512257
aF-0.012710557948039963
aF0.001892084943845936
aF-0.03936845257043613
aF0.10873904690206723
aF-0.009211865749310287
aF0.008994886520282476
aF-0.008371353191071131
aF0.008600386395698155
aF-0.005473370094677371
aF0.021769576275389765
aF0.0030554456177676647
aF0.005775940311574424
aF0.029265718619894725
aF0.03467673876763747
aF0.004842635857333347
aF0.03447977766674385
aF0.09595486209143252
aF0.06282242129533241
aF-0.050475513344597135
aF0.05497592315705648
aF0.008432377570334831
aF0.022091828761185112
aF0.10530744446999453
aF0.030415611462576847
aF0.1262614196429648
aF0.06592898080824215
aF0.010964776076346792
aF0.042119726171134186
aF-0.004826660998324603
aF0.0017354595083219294
aF-0.013854491391883033
aF-0.16065065665643963
aF0.004054155873324596
aF-0.0029346171105610244
aF0.1689014942129854
asI47
(lp49
F-0.0699068640917406
aF-0.04711306252887313
aF-0.11763006102381751
aF-0.021740672294838757
aF-0.10685308947838446
aF-0.01877008080155794
aF0.003563776234514445
aF-0.057207978787857675
aF0.05901773995529734
aF-0.05929382465228721
aF-0.035325407333505796
aF-0.034575871280385376
aF0.005819958098156727
aF-0.033308640094218946
aF0.010205531741226487
aF-0.00982912017885465
aF-0.006258409480396306
aF-0.014187867911464003
aF0.004270044996736174
aF-0.008323148385444871
aF0.007992796311368601
aF-0.007937133426369467
aF0.0018680584848620389
aF-0.04149367840572836
aF0.11301091001802027
aF-0.009849887225419377
aF0.012071042729555918
aF-0.001068242916056927
aF0.007269235950727054
aF0.003290428521556131
aF0.022450540766811456
aF0.003747441168594434
aF0.00880416947334887
aF0.030736508956869357
aF0.036820409201424854
aF0.008467896908278916
aF0.02984676701532028
aF0.09571396201839483
aF0.07088573396832225
aF-0.05465294618793201
aF0.053994507921819174
aF0.0028040708155538004
aF0.023323174831575446
aF0.10243677147631423
aF0.030428139188347518
aF0.12443809168858946
aF0.06781838766799148
aF0.010318537789683257
aF0.03859825731237785
aF-0.0020294224288696823
aF-0.00425621641593173
aF-0.014566679178397844
aF-0.1599586788405966
aF0.0005448058730678311
aF-0.003252096674287853
aF0.17009405357536472
asI48
(lp50
F-0.06706334314487186
aF-0.04916260602554782
aF-0.11582788329423034
aF-0.01882338820271427
aF-0.10871174901909295
aF-0.018462989906298997
aF-0.0018128124257900161
aF-0.05187130233954357
aF0.05788930112204626
aF-0.05755650398034381
aF-0.03444924140945731
aF-0.03552954392771599
aF0.007841967595567084
aF-0.033133490451976624
aF0.0123654633642203
aF-0.01233990393715802
aF-0.004610585976450679
aF-0.019801304600708267
aF0.005775349292676342
aF-0.009215940042580724
aF0.003999852101084746
aF-0.008612386746608055
aF0.0024487949271013013
aF-0.041068514155411615
aF0.11019534319284519
aF-0.006702230238903803
aF0.007019277573896833
aF-0.009621229212293532
aF0.009468600389620958
aF-0.003372409125117106
aF0.02457077352757781
aF0.009160681136240785
aF0.015132474428892904
aF0.027809298924361396
aF0.04032790416080894
aF0.0032556285171446158
aF0.035249593483974856
aF0.09352979996650342
aF0.063193130559429
aF-0.05168000752056973
aF0.05151000302491391
aF0.0014926386385947332
aF0.023138466889075004
aF0.10053799777950782
aF0.022475870048672443
aF0.12428476019683114
aF0.062203299635952905
aF0.008431807408376797
aF0.04366587689266687
aF0.0016908566079480993
aF0.0038953744431506183
aF-0.02288614301294278
aF-0.15790510659530796
aF-0.003905246015341616
aF0.003368541806169063
aF0.17582973467698976
asI49
(lp51
F-0.0693730206765753
aF-0.04409716650454848
aF-0.11748502928741628
aF-0.01969299628640062
aF-0.11059424687089706
aF-0.01703031631401249
aF0.004895862744345718
aF-0.05203095726485474
aF0.059303042942398826
aF-0.0630035492044271
aF-0.03463848210358053
aF-0.030710744584812995
aF0.007944487634228442
aF-0.02924042782846608
aF0.004682890106271661
aF-0.00944696931232927
aF-0.004547358872853829
aF-0.018981218292148112
aF-6.641727445489086e-05
aF-0.010637679829956533
aF0.01039536701436614
aF-0.010407220686365634
aF0.00852378221894505
aF-0.04550651527580237
aF0.10905767105121118
aF-0.004238829179018314
aF0.01079261106232762
aF-0.006167337987971944
aF0.007499257547285068
aF0.0014546906905669348
aF0.02545075683869954
aF-0.0004608849301191989
aF0.007212399933302838
aF0.03200069102427485
aF0.04030176569526208
aF0.007985686270562375
aF0.03574358129613482
aF0.09340102407160598
aF0.06387976810588844
aF-0.05112948544179168
aF0.05809464461639695
aF0.00732694535311543
aF0.02722014431356992
aF0.1040973043078371
aF0.027301792254234205
aF0.11811641765214771
aF0.06138042343801036
aF0.013549713557882417
aF0.042735798515908856
aF-0.003573072718965536
aF0.0036531104967476606
aF-0.016680253803981512
aF-0.15978097352928847
aF0.003356771962514619
aF-0.0027319965320912517
aF0.17124624801567273
asI50
(lp52
F-0.06642092762808484
aF-0.04342547316132756
aF-0.11660622745987981
aF-0.02033335274866437
aF-0.10636951286829062
aF-0.018804538056390957
aF0.004802912838479558
aF-0.0553056495529675
aF0.06147749476719193
aF-0.06562395600771864
aF-0.03568714937957607
aF-0.030175537520871768
aF0.0032614752827812153
aF-0.028559032945970966
aF0.004047042646832792
aF-0.006187170253235031
aF-0.00733496461775349
aF-0.018642462850029764
aF0.0068064621737642045
aF-0.009858343846098749
aF0.0066224119135346645
aF-0.007790090853270359
aF0.006953170176563712
aF-0.0428991376519969
aF0.1092161057702719
aF-0.013327283081956144
aF0.004856673028190681
aF-0.0018605143860931132
aF0.0060650046595654185
aF-0.0027145059025603857
aF0.016369121919874854
aF0.006074150417721629
aF0.013852118923038096
aF0.022548723418307673
aF0.03917456574933402
aF0.0041879737287677035
aF0.030904749544776455
aF0.09303833232013248
aF0.063627167275565
aF-0.0558515966431123
aF0.051278470378101945
aF0.006692270512629482
aF0.026374085657871547
aF0.10377411267032635
aF0.026836381872210366
aF0.12270498961417023
aF0.07023793698345858
aF0.009146439401311584
aF0.03570759029768133
aF-0.0032109653739501344
aF-0.0029369386052611347
aF-0.018902981051692812
aF-0.15953355423014945
aF-0.0009571969293114082
aF-0.0021029376495730443
aF0.17090162985796528
asI51
(lp53
F-0.06876947868885896
aF-0.049389589094147764
aF-0.11892220159321618
aF-0.020747423729941417
aF-0.11017360143738633
aF-0.014855650500048162
aF0.0028377493104232254
aF-0.05495070155827737
aF0.05947250786277737
aF-0.06452074831918857
aF-0.034674385161926294
aF-0.03203686064307669
aF0.006972801046775532
aF-0.029229031247994666
aF0.01285902624622885
aF-0.012498578588363304
aF-0.0004795782526919221
aF-0.02066406738958696
aF0.003255290086440229
aF-0.0074259490659097
aF0.012058671398543651
aF-0.012882736037927589
aF0.006482428175751638
aF-0.04078431545410201
aF0.11317201346132927
aF-0.004292345981329983
aF0.008599368978622885
aF-0.004491894825765278
aF0.010275272959711633
aF-0.004926276560787931
aF0.016858794358937505
aF0.004762423517570469
aF0.015064511115630164
aF0.031066335123159372
aF0.034582178054753034
aF0.00401862417138921
aF0.036167397257215086
aF0.09615050034983187
aF0.06123379790231228
aF-0.054420066812521095
aF0.05443887843468533
aF0.007459522788379047
aF0.028010543128901125
aF0.10493329090844489
aF0.028208705303109583
aF0.12578330299534204
aF0.06764803681798887
aF0.013841205595169572
aF0.03737852588586291
aF0.0020065036162101603
aF-0.00422016672532754
aF-0.021891835543175253
aF-0.16189623492958616
aF0.0040954745904602215
aF-0.0028898016438030213
aF0.17191466719534523
asI52
(lp54
F-0.07035251583853372
aF-0.046206439580799535
aF-0.11720040593495783
aF-0.015670042492162237
aF-0.10748796279637135
aF-0.012544942955402472
aF0.001960388864128516
aF-0.053742908098298965
aF0.058146332138404
aF-0.062492502024147745
aF-0.03217277570564217
aF-0.02780647806953431
aF0.00413303952984151
aF-0.03620353847554313
aF0.008530886135471111
aF-0.006436172104178851
aF-0.0022329718145475156
aF-0.020723375612564286
aF-0.00042365064944557184
aF-0.0071928035671719815
aF0.009295144552946858
aF-0.006248823439598047
aF0.0041306842060470856
aF-0.03990667395952193
aF0.11050298360348902
aF-0.01184229770376946
aF0.006774563859750248
aF-0.005179105004484721
aF0.00920375365452396
aF9.808529919553168e-05
aF0.021409893975673746
aF0.006577710847146536
aF0.007478917795704552
aF0.027181693728151136
aF0.036701451039896776
aF0.007858364688808806
aF0.037416389044527786
aF0.09275921779177947
aF0.06070270269680651
aF-0.053323672055883335
aF0.053056533692353997
aF0.007714981875760782
aF0.022554750428651994
aF0.10559999836582523
aF0.031098379423245153
aF0.12232092765740787
aF0.06243880123360587
aF0.008846796185205317
aF0.04296559154054955
aF-0.0033766736854671906
aF0.00012345266017287955
aF-0.01953470879838886
aF-0.15719767216773606
aF0.002111822422930944
aF-2.9453196141422078e-05
aF0.1685401548001293
asI53
(lp55
F-0.06846208725065285
aF-0.048508562790522444
aF-0.11616209387145361
aF-0.015782881155285203
aF-0.1095581563333496
aF-0.02024907947105483
aF0.0031392979366659385
aF-0.0500663486954403
aF0.05868632060136425
aF-0.0660116798130521
aF-0.03652828612733601
aF-0.030897621917873805
aF0.003451745654644868
aF-0.033960399224135185
aF0.004982865565104895
aF-0.008588545650973538
aF-0.003710074888139351
aF-0.016981100076434167
aF0.006921357974173313
aF-0.013933501394043545
aF0.012058047419644648
aF-0.008246508429636874
aF0.004436435566530238
aF-0.038523135824149554
aF0.11464126010695454
aF-0.0057117010710973585
aF0.008584268711568609
aF-0.004854921585672367
aF0.012430107519783322
aF-0.0016316555695266154
aF0.01693869059916311
aF0.007620798740188954
aF0.013812109172955526
aF0.02484370962302909
aF0.03333689385749107
aF-4.329124912113246e-05
aF0.028313122107981436
aF0.09609070750340565
aF0.06817321323727946
aF-0.05135773926081896
aF0.056172228905776556
aF0.0030958286240109242
aF0.02272425874815864
aF0.10538586381032766
aF0.024466694659731385
aF0.12360103605328182
aF0.0640248399306975
aF0.011412628885337058
aF0.0393400571709288
aF-0.004209015081999126
aF0.0002722415303568998
aF-0.020978723996504994
aF-0.16110397823698705
aF0.0038996828016410255
aF0.0027730951095713157
aF0.16996123669414237
asI54
(lp56
F-0.06772880461309401
aF-0.0445717840571613
aF-0.12146976417913527
aF-0.01674081529192394
aF-0.10652938122359902
aF-0.018062328169288863
aF-0.0011689017846065097
aF-0.049717180670647225
aF0.059208436702447506
aF-0.058963265216841115
aF-0.038625278804570506
aF-0.029864846354279002
aF0.007924396313417691
aF-0.032026337009673084
aF0.0104563579646536
aF-0.010017456392537902
aF-0.001988704534050322
aF-0.015055411036855478
aF0.0009988096160748522
aF-0.008989659496910257
aF0.008297124897452931
aF-0.0073824030366181
aF0.004499308643276796
aF-0.03933795434002917
aF0.11654149002582835
aF-0.004674588797252602
aF0.004198681332125239
aF-0.005993384665645109
aF0.012669781542621909
aF0.0034402328085579577
aF0.015794120565744668
aF0.00846183657107731
aF0.008308179934484034
aF0.025400529026353015
aF0.037796861717522834
aF-0.000800702869977211
aF0.03599846469244178
aF0.0953151538465528
aF0.07104358408325649
aF-0.05276921161502653
aF0.05301692757018274
aF0.003596656617407434
aF0.02228297122709143
aF0.1083154883825582
aF0.028459851735392987
aF0.12242166129414787
aF0.06396746939200512
aF0.01170807769663696
aF0.04432457968556696
aF-0.0008737749416155519
aF-0.0024719680339090402
aF-0.02297709106061863
aF-0.16135739341752522
aF-0.002171492368335677
aF-0.002448851865916664
aF0.1738830730891884
asI55
(lp57
F-0.06613920024661936
aF-0.045590494380598305
aF-0.11992080357877964
aF-0.015001965651959662
aF-0.10403107906667568
aF-0.015181247146300892
aF0.003908043143009404
aF-0.05382264579993622
aF0.06350590019021245
aF-0.06542250888563089
aF-0.03459852906837419
aF-0.029040598974229444
aF0.003978283173099045
aF-0.0340800104370421
aF0.006913451518408911
aF-0.014273427805351945
aF-0.007217299970609089
aF-0.014648271209093105
aF0.0008040606971785507
aF-0.008450808640391626
aF0.00925487463988438
aF-0.011445736353856432
aF0.007941169507376897
aF-0.04548354372934626
aF0.11410043061921776
aF-0.009745848615797007
aF0.004054139831299359
aF-0.0064543775864439965
aF0.011393529040114881
aF0.0025492668148393467
aF0.018909073851604324
aF0.00939921154700829
aF0.010506996458690191
aF0.029764844303759214
aF0.04137218862560486
aF0.004014257705956092
aF0.036777307285825594
aF0.09770904432460749
aF0.06727028551357185
aF-0.04981764172839199
aF0.053494627464137946
aF0.009979505226776332
aF0.02949784486427637
aF0.1067894728627253
aF0.02469305322175801
aF0.11939765058143233
aF0.06918612350000367
aF0.008368455353342935
aF0.040669498858369776
aF-0.0037468990032866424
aF-0.00017539041566787998
aF-0.021339122858852574
aF-0.1602183592638896
aF-0.0001038089384122511
aF0.0017064648972674066
aF0.1747791753061884
asa(lp58
F0.011500551383845873
aF0.009589093665556903
aF0.010253296802776236
aF0.011121831287361607
aF0.010859087996763363
aF0.0099423595763
aF0.011416917460556305
aF0.0036997458973495588
aF0.005547081251530288
aF0.007037627286961495
aF0.007324649590058949
aF0.005403958512278128
aF0.010234106143860116
aF0.00854151271531703
aF0.0038393198412011303
aF0.005605806049291557
aF0.00852170861925247
aF0.0033788046662699364
aF0.0036942558813187953
aF0.007587859248174828
aF0.011696492421228173
aF0.0050484812101075985
aF0.0029127086169140376
aF0.002620217934534493
aF0.008654451675068295
aF0.011814562622101213
aF0.008166867662282798
aF0.010480892796985221
aF0.011113779560125657
aF0.008629415756480104
aF0.010810087039897354
aF0.002923513799479168
aF0.004239519382533084
aF0.010276927906518555
aF0.004382068787694517
aF0.0027667151875766243
aF0.0073798360805983785
aF0.011616992539721309
aF0.005817237626155704
aF0.010205480085531349
aF0.0047818592359518885
aF0.009350421541535177
aF0.003624737448861203
aF0.011186571046260222
aF0.005194506448762261
aF0.0033666505392550383
aF0.010075119375383254
aF0.011307214092956461
aF0.0021996530525409683
aF0.011425968426380396
aF0.004668746500956717
aF0.006265850756345546
aF0.006510729936418295
aF0.007734966787905041
aF0.008634871897702779
aF0.00446087856331462
aa(lp59
F0.04829499847791001
aF0.04170399049225537
aF0.0406690957185636
aF0.04967593745328877
aF0.044497745053932086
aF0.03980028244987116
aF0.046661497242205
aF0.04346257120432678
aF0.04841486459118326
aF0.03924036430127352
aF0.03919036570747923
aF0.03708998845778724
aF0.046119746998524
aF0.04078040070256422
aF0.03900161431391205
aF0.045721107373848935
aF0.045091046495541146
aF0.04371521690543195
aF0.03508158601643879
aF0.041409019728203225
aF0.0478581515796028
aF0.046525895806269216
aF0.04243031792723066
aF0.048962546265611195
aF0.046197306107630814
aF0.04715296628994328
aF0.044491751794791076
aF0.04310493974286482
aF0.044195985119687156
aF0.03907906161812563
aF0.05121901742330291
aF0.04064820896665969
aF0.049377134661933816
aF0.04904872312412231
aF0.04226812719357598
aF0.03790605747503288
aF0.045360299578154295
aF0.0430565282839219
aF0.04327478113508906
aF0.04243280224931546
aF0.04491254912095398
aF0.04103233940030841
aF0.04607934796386162
aF0.0408934080824675
aF0.04720992613484186
aF0.04235052239760913
aF0.04621164480625757
aF0.04197185614449232
aF0.03927440436126475
aF0.04197014023509074
aF0.03803494672641565
aF0.049704962016467055
aF0.03991303483111079
aF0.0470087618208911
aF0.04726629509523832
aF0.04178955131812659
aaF3.1588587716644447
a.