(lp0
(dp1
I0
(lp2
F-0.13128059686199703
aF-0.0701463696075914
aF-0.16579053401205315
aF-0.029034618546752336
aF-0.15221371678116086
aF-0.03620796387414896
aF-0.009846458338903886
aF-0.08144472096732286
aF0.062086128346784064
aF-0.08236719327909908
aF-0.031440133578829715
aF-0.05581430892349733
aF0.003101550132297797
aF-0.04287177939990426
aF0.009066503475616177
aF-0.019946140038460767
aF0.0034163567017851384
aF-0.022935482426031814
aF0.01369433510968953
aF-0.023252844035690983
aF0.009527906143301495
aF-0.014276060299858801
aF0.015585527335527153
aF-0.06335715044170716
aF0.1254417798291545
aF-0.019296829599849494
aF0.012121623018158539
aF-0.006494994232285929
aF0.019967483381880285
aF-0.009841144306282716
aF0.029933782097508282
aF0.002496208466238476
aF0.019552471307766415
aF0.023865955410057732
aF0.04556308849599239
aF0.006616668849445551
aF0.06025311939614598
aF0.07415450671614285
aF0.08636488789771701
aF-0.057227081183422596
aF0.07935481379603543
aF0.011782290724015243
aF0.03718953657468109
aF0.13567619919493612
aF0.037824955973802615
aF0.1595871195246726
aF0.08296843578550804
aF0.08888412080419852
aF0.05865578498442408
aF-0.002852189705992889
aF-0.00022163942444905507
aF-0.02501287953912407
aF-0.20964786346450012
aF0.0008181714063822661
aF9.40569404831087e-06
aF0.2371498261984755
asI1
(lp3
F-0.13452663248271912
aF-0.07239913886837225
aF-0.16621443057910112
aF-0.03316928072743162
aF-0.1523232803694608
aF-0.03498008898811249
aF-0.010251140297571676
aF-0.07605427344976437
aF0.06304638655975349
aF-0.08259594136369267
aF-0.029432566554342607
aF-0.05370798453672601
aF0.00012608531638312023
aF-0.038584413644552035
aF0.010133357093249726
aF-0.013686873717837689
aF0.0011090756936190612
aF-0.02849341745472192
aF0.014140998514959695
aF-0.01624680795278129
aF0.006606376017052112
aF-0.014008617984881289
aF0.00869027526347846
aF-0.059692533825561174
aF0.12172318484740757
aF-0.01777006124822957
aF0.009731137108129275
aF-0.008823503700692521
aF0.02266954275417523
aF-0.013128263914340446
aF0.030646216176313888
aF-0.0002508007455501883
aF0.01878972590440906
aF0.019974939880970807
aF0.04095990991804562
aF0.006847743028537842
aF0.05518453016912245
aF0.0710948952173428
aF0.0889104054922798
aF-0.05832161788988168
aF0.0752692238639202
aF0.012300050106649375
aF0.04171153713172534
aF0.13731153408494634
aF0.039920069444641715
aF0.1642792508246729
aF0.08050022984804267
aF0.09313308596067157
aF0.05337294192709658
aF-0.0032190090554390796
aF-0.004310299230757332
aF-0.02921405030631805
aF-0.2122552092209371
aF0.0027438469794124976
aF-0.00013805022462757104
aF0.23937440029780996
asI2
(lp4
F-0.13266000907367512
aF-0.07050326122316844
aF-0.16461044226907376
aF-0.030200721425747007
aF-0.14803394154124996
aF-0.036004720345429786
aF-0.011534335360087387
aF-0.07992804176775846
aF0.059482085644079606
aF-0.08243859822764664
aF-0.032544514185015964
aF-0.05795297594248951
aF0.0027959991705861316
aF-0.044195445509100865
aF0.012502908541197927
aF-0.020383501677403222
aF-0.0018001956971105512
aF-0.024298799985066517
aF0.010188533026745758
aF-0.019419060869452612
aF0.010110635348927994
aF-0.015639592851096232
aF0.009262930191127424
aF-0.06208406236637386
aF0.12751031443230115
aF-0.013573944856769998
aF0.01586701919440569
aF-0.009730428059863959
aF0.015183185852110136
aF-0.005674909555625887
aF0.024751455423106
aF-0.00420182355953935
aF0.017175098896927886
aF0.02550940878530635
aF0.049744672082761975
aF-0.0009921079070718793
aF0.05736224438446541
aF0.07145756357943592
aF0.08999037255503932
aF-0.05480813272719678
aF0.08057449331142266
aF0.014354144615181648
aF0.03846504070611903
aF0.13804771902797358
aF0.03857588374404159
aF0.15840300979827607
aF0.08788637126794899
aF0.08984614621683427
aF0.05495211059773823
aF-0.0035711728002543967
aF-0.0022316421443192907
aF-0.027931403029064023
aF-0.2098590590189618
aF0.004099190300783286
aF0.00034579473962050944
aF0.23985052734820228
asI3
(lp5
F-0.13214361351200782
aF-0.06580392817003167
aF-0.16703749269063414
aF-0.026807482563852906
aF-0.15215203131415145
aF-0.029858179387382628
aF-0.0062902635082019735
aF-0.08048803428995321
aF0.06513094502623792
aF-0.08742961118081713
aF-0.028921024884304418
aF-0.05958754469555573
aF-0.0007593321444936489
aF-0.04253482173872276
aF0.00591570427918612
aF-0.012662572050897469
aF-0.004131935833898334
aF-0.030179505557609187
aF0.009654367631729483
aF-0.02290535707494403
aF0.006534061215676793
aF-0.018343085965497812
aF0.010127307874989997
aF-0.06207855228305357
aF0.1265458457008096
aF-0.01191901647865224
aF0.008678014759854455
aF-0.0028100704198526344
aF0.023285128625943674
aF-0.013304868767499454
aF0.027133405538356345
aF-0.004725224373117627
aF0.019823099942549664
aF0.02112525302661571
aF0.047248792770410886
aF-0.00022741137314455194
aF0.05378768008760221
aF0.07354077127102562
aF0.08926587420952992
aF-0.0587784981747044
aF0.0778983394187988
aF0.015798138774993472
aF0.04095650194353795
aF0.14284590042709014
aF0.03450329366708909
aF0.1578957063101654
aF0.08307414496210576
aF0.0927709452583474
aF0.05465213150415663
aF-0.004520531390634219
aF-0.004874932569196834
aF-0.024987373939961206
aF-0.21302649921111078
aF-0.0038578796214959656
aF-0.000253522899706559
aF0.2418650364382967
asI4
(lp6
F-0.1331850361912608
aF-0.06882975304529886
aF-0.16646720037090093
aF-0.03212779813383827
aF-0.1476971372231518
aF-0.03130422683706202
aF-0.012048002683963397
aF-0.07670295895276762
aF0.05575442518354727
aF-0.08448480910674364
aF-0.03208775614744534
aF-0.05863312610455827
aF-8.569296181773364e-05
aF-0.039852138649581925
aF0.007223394896348517
aF-0.014549038506768436
aF-0.0021344959336612943
aF-0.02743798299188802
aF0.013218101956006083
aF-0.022300627177005133
aF0.007752068842187767
aF-0.012770094508023388
aF0.015802700109946652
aF-0.06286854856421992
aF0.1286677279232297
aF-0.013105216249608767
aF0.010712144468881303
aF-0.00474222026561198
aF0.018756844831601196
aF-0.007435482805166704
aF0.026955950832451735
aF0.0025470583133220255
aF0.012670383321181956
aF0.023213360426637394
aF0.04541541833299439
aF-0.0017987988534932642
aF0.06173860568815844
aF0.07076507102603251
aF0.08426932715254666
aF-0.056247047686528974
aF0.07793389127522031
aF0.011704444398191778
aF0.045881579803385496
aF0.13927240200539745
aF0.038083431507469755
aF0.15934916516252476
aF0.08456287570907023
aF0.09336101362141605
aF0.05199791517030579
aF0.0005104984100482553
aF-0.0009101466274185569
aF-0.025644900526280177
aF-0.2118264498742811
aF0.004960689231860928
aF-0.0018513976235755504
aF0.23676337688780416
asI5
(lp7
F-0.13063305621799842
aF-0.0695856707807545
aF-0.16576779017183227
aF-0.02639387796803717
aF-0.1493287241976662
aF-0.028446022230774505
aF-0.00744382521689185
aF-0.07731664731721664
aF0.06359080882376819
aF-0.08463391463802324
aF-0.028269875442022304
aF-0.05731329482976382
aF-0.0007976317516182412
aF-0.04181854924448978
aF0.010290542324959844
aF-0.02046190307292611
aF-0.0024398145336765394
aF-0.030234871495572635
aF0.008593128849122321
aF-0.017770042816455795
aF0.007329524719219495
aF-0.012897523280838786
aF0.0066739162442418795
aF-0.06101736445356314
aF0.1266123667943065
aF-0.011181961400305104
aF0.014510631452196538
aF-0.0036316936225653153
aF0.01674775825773801
aF-0.010746991252558648
aF0.027340083204682397
aF0.0008143611323823439
aF0.012766004782017391
aF0.019679531187487984
aF0.040712942722377986
aF-0.002410726825746488
aF0.05280797899269777
aF0.07173391959285552
aF0.08162667778669792
aF-0.05868669622462014
aF0.07206492905263519
aF0.009646970121288559
aF0.037713117079149185
aF0.13415955045031358
aF0.04033151701628786
aF0.1582080481944027
aF0.0784486877721478
aF0.08963509729048996
aF0.05859946356314863
aF0.0005045732843270882
aF-0.0002191032753490703
aF-0.025803166458690654
aF-0.21060809056064553
aF0.0031155706380707393
aF-0.001126131983620003
aF0.24112321903711703
asI6
(lp8
F-0.13490397598565276
aF-0.06828826498461252
aF-0.16825092538311529
aF-0.02821419495999033
aF-0.1526318360898096
aF-0.030706801054232603
aF-0.009031700952618179
aF-0.07784907714948068
aF0.057213764591423556
aF-0.08130620028619069
aF-0.026956250821245357
aF-0.053739574673597953
aF0.003605449133139356
aF-0.04311024050320496
aF0.012260169669135013
aF-0.01720439455309058
aF-0.002843800164669976
aF-0.023593716456809247
aF0.01171092531406403
aF-0.020982749727865718
aF0.0019367337140532937
aF-0.015119352407983047
aF0.00978125325907901
aF-0.06347668301513378
aF0.12554934224869188
aF-0.019340926630246016
aF0.011570455381887139
aF-0.007557550599102807
aF0.023229851681927385
aF-0.00529932192779615
aF0.033942024528281906
aF0.004656571659830094
aF0.012717072178840903
aF0.02521362322261552
aF0.04192356030338319
aF0.004291524411552016
aF0.05681864580103997
aF0.06677848941654964
aF0.08714424767861918
aF-0.06148156693679727
aF0.0713463067430162
aF0.013161365746211746
aF0.040638366351256214
aF0.14260742469187945
aF0.036836859235773164
aF0.162766214821381
aF0.08498596575103802
aF0.09407894459756255
aF0.058717620095911104
aF-0.0011888203058537403
aF0.002998751833440053
aF-0.029278370335422757
aF-0.2130166325715629
aF0.0010380585008683712
aF-0.0021866236144000985
aF0.24171903217936366
asI7
(lp9
F-0.12989887286911397
aF-0.06860664406721936
aF-0.16624938531232442
aF-0.03288587159179586
aF-0.14572274486573003
aF-0.03239716264600173
aF-0.00796005207191769
aF-0.07511774480173707
aF0.0618548842331618
aF-0.08758095577936198
aF-0.03305780944192102
aF-0.058925150533230025
aF0.006216933796560947
aF-0.04065807682761651
aF0.013921155556642988
aF-0.019504753263488408
aF-0.001045953361443409
aF-0.025632022278415913
aF0.009613677704556753
aF-0.01745301122628515
aF0.010035917267143259
aF-0.015514746856164482
aF0.013122952355570835
aF-0.058845464180713736
aF0.11968614022545014
aF-0.016254127806280643
aF0.009040430719599396
aF-0.005247578853356105
aF0.01767753877835856
aF-0.010762911165447074
aF0.031034152021625357
aF-0.004983144643047566
aF0.012465387737217275
aF0.025246819565290898
aF0.04242250822290714
aF-0.0025165935035966337
aF0.06155132952114263
aF0.06980177509086594
aF0.08312595876284734
aF-0.05364882688998183
aF0.0735383509301448
aF0.006110748295329333
aF0.03534415867245544
aF0.13510010040910145
aF0.03766768497862852
aF0.16091166346081243
aF0.07922451480906775
aF0.09007049718892357
aF0.05228171595967698
aF0.00035956725991484007
aF0.002264778791995628
aF-0.030567568544508473
aF-0.210999136634126
aF-0.0007375218380243711
aF-0.003354495478832104
aF0.24104381905250752
asI8
(lp10
F-0.13348951139767454
aF-0.07105336842832441
aF-0.1643728621870269
aF-0.030429066764074513
aF-0.14978063296269536
aF-0.03217576849529624
aF-0.005384764904095778
aF-0.08115753400572376
aF0.060514176674484596
aF-0.08431272232034115
aF-0.03233492326570645
aF-0.05210360155355541
aF-0.001213751771798295
aF-0.04399243091386966
aF0.01134262344872965
aF-0.01972655765750663
aF0.00385707866323189
aF-0.025724339002337025
aF0.007395971439706098
aF-0.016225096980720447
aF0.01067914786101696
aF-0.011006649418171506
aF0.016069863412418218
aF-0.06396177239227382
aF0.12311029136651032
aF-0.014399434303305392
aF0.015452193032866565
aF-0.010151437218684107
aF0.018641521999905417
aF-0.00604071504406054
aF0.024410392935016796
aF-0.00036691542459012575
aF0.011704084996661007
aF0.021132021264397914
aF0.04976185085692474
aF-0.002336975224985134
aF0.05369606903894477
aF0.07103609410017005
aF0.0896288481374105
aF-0.05734402961902217
aF0.07357150265874078
aF0.010946774598980922
aF0.035534931844797654
aF0.1373620168725104
aF0.041685894020309096
aF0.16314976300766806
aF0.08822673023370829
aF0.0900758896840386
aF0.055066168690280574
aF0.003118812684570286
aF-0.0006924507067738883
aF-0.0252837696611251
aF-0.21077705549643413
aF0.0015822373088551268
aF-0.0042374603743367024
aF0.24318301169177559
asI9
(lp11
F-0.13184074914658164
aF-0.0728129147802815
aF-0.1655249094173215
aF-0.026677058166192747
aF-0.14761146374100448
aF-0.029642523323819187
aF-0.008406974306455987
aF-0.07377216207177315
aF0.05744564838649479
aF-0.08345909994579104
aF-0.027581745149521976
aF-0.052023162706377225
aF-0.000800488491029339
aF-0.03715857939869123
aF0.007081998163416683
aF-0.021786833258501316
aF-0.005126101691713413
aF-0.02367723924974382
aF0.01301040883400995
aF-0.020728564459030183
aF0.0021456950036797444
aF-0.01571217657075026
aF0.00938168782872353
aF-0.060399504140893595
aF0.12500498544631022
aF-0.01932007924576684
aF0.008666037409713705
aF-0.0036012076234829193
aF0.01706250497150196
aF-0.007674640090775755
aF0.024485492925789203
aF0.001938551334497497
aF0.019529938134396917
aF0.017711136856495016
aF0.048012172591037884
aF0.005936388073479063
aF0.056466715116692684
aF0.06776835935370012
aF0.08258994983674703
aF-0.06045992160982779
aF0.07441288498123698
aF0.010659303391960074
aF0.038487535560769115
aF0.14311622359159
aF0.03391737066631292
aF0.15772520835137835
aF0.08507798759559947
aF0.08906199996265539
aF0.052078233255345274
aF0.001519081349660976
aF-0.0008372719436939717
aF-0.03207005419049396
aF-0.21033736460291083
aF-0.0036835210680446154
aF0.002643807802022061
aF0.24160849115332053
asI10
(lp12
F-0.13107971750284672
aF-0.07036899934397711
aF-0.16505993525116233
aF-0.03190409296745128
aF-0.1477399818751645
aF-0.03629318205123919
aF-0.004213433782053498
aF-0.07475350714996869
aF0.05810144107859473
aF-0.08361645342380551
aF-0.03163275729220908
aF-0.051538583275942275
aF-0.000955076990635078
aF-0.044764129792518544
aF0.00998570766533428
aF-0.018399742557110653
aF-0.004818973226330023
aF-0.022110881446920794
aF0.008839518334861851
aF-0.017516235694413136
aF0.0025284453994760315
aF-0.01680793912148692
aF0.007988200826624816
aF-0.06351623913985906
aF0.1277568708961635
aF-0.016577259873118512
aF0.015395491614582613
aF-0.009013709434247856
aF0.015084121048555638
aF-0.006297017150173797
aF0.031226151804555635
aF-0.002391101659156689
aF0.011598274773231878
aF0.021048981310175057
aF0.04323732938996586
aF-0.0007447700804287887
aF0.05928621158278516
aF0.07021497220200378
aF0.08229015280539843
aF-0.05780527085938133
aF0.07323383203497184
aF0.005948294527382093
aF0.04150098277157658
aF0.13943823016553317
aF0.03756237071850391
aF0.15908217310111705
aF0.08662262972144791
aF0.08872389444212725
aF0.05028294673984929
aF-0.00481142424666659
aF0.0004890697103430438
aF-0.02328165967184179
aF-0.20986431886970403
aF0.0007916021533629243
aF0.00353284291007065
aF0.24040802775490996
asI11
(lp13
F-0.13140043571258186
aF-0.07075374324798007
aF-0.16753586655035163
aF-0.026515894448988758
aF-0.14783036462220803
aF-0.03439273071797717
aF-0.006296998159768113
aF-0.0776369099759075
aF0.0604241265201076
aF-0.08702460325177169
aF-0.02866738583854205
aF-0.05685473649801208
aF0.007147030272096776
aF-0.04132428402182541
aF0.0132412345493971
aF-0.0192200968098095
aF-0.001811395392295781
aF-0.029445126869536434
aF0.012743562072410551
aF-0.01901696291535402
aF0.005276352904097208
aF-0.01196543081122006
aF0.009870174598518388
aF-0.06019565127164726
aF0.12057157588517536
aF-0.01288317046382591
aF0.00940049893490945
aF-0.007141772026269465
aF0.01805062205332494
aF-0.01137372324331777
aF0.0288086136480329
aF0.004268133571522289
aF0.02084389976404838
aF0.017626605229893042
aF0.04435986816197909
aF0.0022938472794233173
aF0.0564125345266145
aF0.0670065713163328
aF0.08630838337148841
aF-0.05435120448871427
aF0.07197096155196278
aF0.008978689241923951
aF0.04374414814279394
aF0.14160370660125657
aF0.032839731562328736
aF0.16142403372822559
aF0.08320620829588042
aF0.09140506183241173
aF0.050307999634956586
aF0.003529510949526732
aF0.0023857750872434158
aF-0.030657510872691775
aF-0.21191943260604168
aF0.0026479907880973654
aF0.00034116853694164825
aF0.24080299613956702
asI12
(lp14
F-0.13090279230265348
aF-0.0635809036110619
aF-0.16824887876352868
aF-0.03343609566592118
aF-0.15183499606030806
aF-0.035855398629684766
aF-0.011904589630026613
aF-0.07518010552290111
aF0.05841385248575316
aF-0.08322072190689501
aF-0.03239064023486051
aF-0.059642781436384296
aF0.007913221099958146
aF-0.042930367899155435
aF0.012448197459001976
aF-0.017843279666131494
aF-0.000973090392115438
aF-0.02766771513125651
aF0.009591252277613975
aF-0.01662007229789994
aF0.0032621745466556843
aF-0.014228327862556287
aF0.010268592482183666
aF-0.060899582033462865
aF0.12729704839586398
aF-0.015762940488508695
aF0.013877981518795483
aF-0.00924381761768594
aF0.02170732418858181
aF-0.013430474413221542
aF0.028515724515527374
aF-0.0007260665167761336
aF0.0205125799425918
aF0.019319565723789508
aF0.04090299581474752
aF0.0056015480002155095
aF0.05472025119179552
aF0.07029959230975272
aF0.08800742069093477
aF-0.059178580549870206
aF0.07145456135024457
aF0.0067553627826783735
aF0.03943613581185549
aF0.1401925782137672
aF0.03735014653343786
aF0.1634831621702837
aF0.08330786731316814
aF0.09126493659633139
aF0.05763379539687412
aF-0.0017112107920365775
aF-0.0027225314755826603
aF-0.025052570175458446
aF-0.21284091577124525
aF0.0039600813261414305
aF0.0008541326581891882
aF0.24175063408005948
asI13
(lp15
F-0.13455674440201967
aF-0.07372400126113472
aF-0.1666087051637058
aF-0.027778164967026155
aF-0.1493720239189594
aF-0.02962802261801707
aF-0.00807885280410289
aF-0.07676438120531992
aF0.0612888062799009
aF-0.08403126974644706
aF-0.03383493074245999
aF-0.051846804390682774
aF0.0050394182676538665
aF-0.03750370670839641
aF0.011677027700358568
aF-0.015519626987800239
aF0.004248643274419053
aF-0.02253240952296054
aF0.013618586187050351
aF-0.020161230426074126
aF0.0068771200063813195
aF-0.015519488304976644
aF0.011589233510217352
aF-0.06210807591346772
aF0.119491990962656
aF-0.015436097556969024
aF0.010553347667364623
aF-0.0037118050304762863
aF0.019919392163183763
aF-0.01094250788002787
aF0.032972522950634436
aF0.0016280775289817817
aF0.011849470104056195
aF0.023549456093297314
aF0.04278723544409652
aF0.00045307015686453126
aF0.057754429186804644
aF0.07116196402299932
aF0.08084639901032363
aF-0.058689034763888315
aF0.07598381242366448
aF0.013711349095897434
aF0.037084377028306095
aF0.1403106645012179
aF0.03829718740546984
aF0.16217963593147583
aF0.08109227447199413
aF0.09159584694174679
aF0.05726984134539591
aF-0.004452700217239787
aF-0.004719587901817302
aF-0.023384171791899003
aF-0.2120792098186506
aF-0.00406791857549055
aF-0.003165262880585229
aF0.24190858855250472
asI14
(lp16
F-0.12848386451996915
aF-0.06595262270832605
aF-0.16387514094212527
aF-0.03042197231286453
aF-0.14803456471249157
aF-0.03229670832408881
aF-0.010244223319953982
aF-0.080465521094364
aF0.05658379410125696
aF-0.086646058020527
aF-0.0288489143950335
aF-0.05592801160041332
aF0.008237787838673148
aF-0.03951712680867912
aF0.012375581426153087
aF-0.018338246996464896
aF0.0015680575414148271
aF-0.029613959013953188
aF0.012602153516551572
aF-0.024963163012279577
aF0.0016855697776011046
aF-0.014383929427065319
aF0.008124220812279707
aF-0.06416225743613703
aF0.12265775176353907
aF-0.016867405977382656
aF0.01634660832004561
aF-0.008054058182118762
aF0.015345339044778875
aF-0.008525868833264992
aF0.033844333172738786
aF-0.0027848100805289047
aF0.013132598666991083
aF0.01717107022757344
aF0.039861687086215736
aF0.002146795652565385
aF0.05223546321425781
aF0.06906183317532891
aF0.08136052467592968
aF-0.05438515923085157
aF0.07306123400877647
aF0.010631316126015828
aF0.039670047878456495
aF0.13922749766702153
aF0.03375375486703526
aF0.1568960477662161
aF0.08715261664782818
aF0.08792208122481297
aF0.056412767775222694
aF0.004003257233497853
aF0.0039195612985676405
aF-0.023218792550802222
aF-0.20924448870574708
aF0.004623800481459944
aF-0.004973348407077897
aF0.2388217928998495
asI15
(lp17
F-0.12972009457198286
aF-0.06539898198457467
aF-0.16749342452738517
aF-0.03302056814798393
aF-0.1505629735926999
aF-0.034944671655797094
aF-0.011891092337012741
aF-0.0791976792993185
aF0.059809862183674525
aF-0.08334336037048387
aF-0.02775410245150535
aF-0.059306707434423865
aF0.00775859337679101
aF-0.04215535998502886
aF0.013315417971890755
aF-0.017311842559484106
aF-0.0022582502191350897
aF-0.024960149215493273
aF0.010330892470460621
aF-0.02547539936665408
aF0.001885907693462559
aF-0.010637018296057068
aF0.012225254363278122
aF-0.05940074457388245
aF0.11905486847280217
aF-0.015829518658291918
aF0.010363431703925945
aF-0.002936133583435355
aF0.02098669466604235
aF-0.012481644045350512
aF0.028437640449865607
aF1.0471425632000743e-07
aF0.01659372657256096
aF0.019940550827939586
aF0.04616614818642779
aF0.002994592535002722
aF0.059806296547122786
aF0.07324804912121106
aF0.08804493072703827
aF-0.05527488809511439
aF0.0787773607604666
aF0.006450717714610303
aF0.03740579914255774
aF0.14267123823740452
aF0.03906632536755516
aF0.15885908278680905
aF0.08649606229355733
aF0.08916975628653159
aF0.05354353731336534
aF-0.0029406641470868682
aF0.00029613416563003425
aF-0.027971978090599713
aF-0.2105577470698444
aF-0.0036082504545227293
aF0.004073560818328492
aF0.24097615787228568
asI16
(lp18
F-0.13207373882437515
aF-0.06914027348575341
aF-0.1664914456995011
aF-0.03371481744032352
aF-0.15018143652782337
aF-0.03132829840767819
aF-0.012260412629028569
aF-0.0769420136288785
aF0.05780089306185063
aF-0.08949125877320656
aF-0.028716092050166498
aF-0.05154325866126996
aF0.0070294305914272446
aF-0.043078853656074015
aF0.008444724918263506
aF-0.020580918809622456
aF-0.005259344395262092
aF-0.03048939875949896
aF0.01291282241360812
aF-0.024734789617398646
aF0.006748731220589064
aF-0.0156012819748846
aF0.009479618914666268
aF-0.06363473227668312
aF0.12594380107205128
aF-0.013756174474186205
aF0.01342690874508545
aF-0.007445119122566284
aF0.0212542491142534
aF-0.004196034103463192
aF0.0245560033553929
aF0.0028274140669424896
aF0.012055130087893606
aF0.021113431803739285
aF0.043514115533867796
aF0.0005545976509344883
aF0.0535121872193931
aF0.07366431663994452
aF0.0897006590201127
aF-0.061842218318608595
aF0.07393076465054489
aF0.008002518632319464
aF0.04281397127669286
aF0.13712983496073355
aF0.040998985782701176
aF0.16374362800006023
aF0.08317895554783691
aF0.0925219026906462
aF0.056855595418622
aF-0.002877114105401779
aF0.003759867435763542
aF-0.02780717395373042
aF-0.2134629437613416
aF0.0023865052108912968
aF0.004462223163070426
aF0.24274952607602462
asI17
(lp19
F-0.1313721983260036
aF-0.06614819911303871
aF-0.16676542659444488
aF-0.029832196772615907
aF-0.15105506517849943
aF-0.03403894804530148
aF-0.01092839503388945
aF-0.08044674152131526
aF0.06424650382956364
aF-0.08243673330655923
aF-0.031098542053986464
aF-0.053012508812160464
aF0.006014522473034953
aF-0.03836082081509866
aF0.006397500809664242
aF-0.01841217882636841
aF-0.004162631002554821
aF-0.030103711079682974
aF0.014397293957429587
aF-0.017974337133712284
aF0.0030887440328147414
aF-0.014923444009706861
aF0.009778664168024698
aF-0.05840366164176657
aF0.12182342130032624
aF-0.017976822898562887
aF0.009989784244455938
aF-0.004362860842339974
aF0.02174235990767839
aF-0.008460590616355557
aF0.02830757438855826
aF0.0017670705330929504
aF0.0201264458874203
aF0.017367860783362405
aF0.04868908045021234
aF0.003703217271646921
aF0.05325231374717331
aF0.0676350097709964
aF0.08748849887970721
aF-0.05336134726510868
aF0.07417546162933172
aF0.012541250581924913
aF0.04122536911105966
aF0.142140214864259
aF0.04308701011334081
aF0.1589918111068037
aF0.0789623351728537
aF0.0925771740534813
aF0.05585759785718953
aF0.0007818687779661721
aF-0.0005736751254566702
aF-0.025253028903995004
aF-0.21294385686662426
aF0.001047926171743789
aF-0.0003859799671542556
aF0.2424753887263847
asI18
(lp20
F-0.13363982971755073
aF-0.07079392956963079
aF-0.16537420603732625
aF-0.03070322791753256
aF-0.14725195693182222
aF-0.03137571366978775
aF-0.004781627011107818
aF-0.07560553733721541
aF0.05631148714365877
aF-0.08177263469222391
aF-0.032158887149330725
aF-0.052059236290231514
aF0.004728219686057189
aF-0.043650019705373036
aF0.01393980989551772
aF-0.013826904842115312
aF-0.0030852134328791816
aF-0.02694894543788539
aF0.01336499387336973
aF-0.02127129636716484
aF0.007296542592041297
aF-0.01170700146940495
aF0.007021078139885151
aF-0.06568840740132548
aF0.12439077069268775
aF-0.01484035857641265
aF0.009659565431327842
aF-0.010367410499916302
aF0.01676418276133437
aF-0.013119876157941832
aF0.028456254289840312
aF8.337860729563293e-05
aF0.01678393717017496
aF0.021134737874630872
aF0.048110213034508936
aF-0.0010196449191472764
aF0.05972929904384079
aF0.0679717405772736
aF0.08104404291669326
aF-0.05700932929696568
aF0.07815664335415867
aF0.013123011974504146
aF0.03967325297206083
aF0.13769640565850005
aF0.042156218004108716
aF0.1601904838647018
aF0.07992854250568383
aF0.09437217591589546
aF0.05035094581644513
aF0.003681010907420554
aF-0.0010450262191638064
aF-0.02771055942210864
aF-0.2109022210255879
aF0.002058325906631169
aF0.003361925481516826
aF0.23628674048511522
asI19
(lp21
F-0.13345969772306662
aF-0.06678429129674872
aF-0.16687061757380608
aF-0.031948811736978965
aF-0.14584024882238011
aF-0.03033307230407073
aF-0.009498552055559335
aF-0.07568374015780693
aF0.06030566672552642
aF-0.08662590170409741
aF-0.032158607849685
aF-0.05995878701503421
aF-0.000663953420012728
aF-0.03840615828886867
aF0.01041866194606489
aF-0.015000487652786504
aF0.004256382442652021
aF-0.022278723569819775
aF0.010253939790987461
aF-0.019821171299493488
aF0.008252933705791547
aF-0.01669743595645765
aF0.013863867121901125
aF-0.0643725961723107
aF0.12318997262460656
aF-0.01614176040899815
aF0.01710039715145774
aF-0.010003988220150053
aF0.0193716552941062
aF-0.011033671211855316
aF0.028741261779666877
aF0.0036155911665907143
aF0.01759890592858306
aF0.018046788914213675
aF0.042145682559954135
aF0.0038238686421682463
aF0.05903803685752949
aF0.06949773306835261
aF0.08113931644758253
aF-0.05696383650793691
aF0.07364509922563073
aF0.013832677327870304
aF0.044392886515711015
aF0.13845701267940017
aF0.03493077692977833
aF0.15888545766275514
aF0.08058998241355092
aF0.09358502719278687
aF0.05828710939678103
aF-5.583546176703097e-05
aF-0.004403363347588761
aF-0.02407677974118711
aF-0.21147397974726725
aF0.004483708253217034
aF0.001735369958211783
aF0.2430966689117091
asI20
(lp22
F-0.1327952907479709
aF-0.07393422571299521
aF-0.1657611863457307
aF-0.031860335405553455
aF-0.15208726212549542
aF-0.03161921434306982
aF-0.006265716985632035
aF-0.0779415730927196
aF0.06479567945610633
aF-0.08749835792662268
aF-0.032988861890403995
aF-0.05545277459142187
aF0.005137170660566938
aF-0.04125761446506512
aF0.00800461929286134
aF-0.018134018461975192
aF0.003969478109859076
aF-0.028628760444129042
aF0.015056784204576547
aF-0.017609913952297544
aF0.009755789608253762
aF-0.011283574718770307
aF0.015066166601466615
aF-0.05969196812766856
aF0.12096952523212662
aF-0.011449201822097145
aF0.011171852405884397
aF-0.009571420674450052
aF0.018541504150795005
aF-0.012031617901941648
aF0.027367945086954854
aF-0.0013878610051073026
aF0.013327948895677098
aF0.024030179722399014
aF0.04191792025265303
aF0.001680174044005491
aF0.06134430042148522
aF0.0737604174042279
aF0.08557709236092825
aF-0.054788514042647306
aF0.08074655562132425
aF0.014760133160302835
aF0.04157447276483762
aF0.13479901806276776
aF0.03855497422147963
aF0.15874028156857325
aF0.08693839456118076
aF0.0919459259753405
aF0.05767388704035727
aF-0.0014099988489150563
aF-0.0026494297029063807
aF-0.028466183545681874
aF-0.21257296598176148
aF-0.002907275616630105
aF-0.0010890085508492742
aF0.24342375739376454
asI21
(lp23
F-0.13240954724525356
aF-0.06798943169772709
aF-0.1670299888411166
aF-0.033492325762700254
aF-0.14747904621927957
aF-0.03425197615429736
aF-0.005511090493557353
aF-0.08041755569140598
aF0.06042476233234791
aF-0.08269233312083663
aF-0.032125806952201456
aF-0.05152413553577546
aF0.00021331321110856446
aF-0.04221121711424384
aF0.011669450292257336
aF-0.01800236852940912
aF-0.0037555136041020703
aF-0.024579854426006933
aF0.006824540530287216
aF-0.01914505993119494
aF0.009029667408793103
aF-0.012093244656090463
aF0.00892447450884166
aF-0.06346642230495718
aF0.12660998465212178
aF-0.010223132523778083
aF0.014910968277916232
aF-0.007550951923707573
aF0.016495919163594937
aF-0.008976835894110276
aF0.030186497814647044
aF-0.004090299028324393
aF0.017041155061962035
aF0.026727419184825327
aF0.04378054430248712
aF0.0027274870157669804
aF0.06110209011377593
aF0.07445706215105194
aF0.08567198645025588
aF-0.06074115190915712
aF0.0722621180988017
aF0.008095442747000511
aF0.039813059586530926
aF0.14002578010521674
aF0.04055787624346869
aF0.15729960346905308
aF0.08522248700311348
aF0.09205305205649582
aF0.0540854745748256
aF-0.0036625320861615497
aF0.0032708891733059845
aF-0.029582503417433938
aF-0.2100472577817376
aF0.0010295784742547387
aF0.004467998356630042
aF0.2394076306914474
asI22
(lp24
F-0.13084084400388477
aF-0.06666535127210517
aF-0.16656054101397755
aF-0.03005867986303384
aF-0.1467386976082869
aF-0.031353458268386036
aF-0.007415788684130828
aF-0.07563274264721702
aF0.06304554591159477
aF-0.0897734886340853
aF-0.029314999986663575
aF-0.05166253869425214
aF0.008194135134344142
aF-0.045204848944272596
aF0.011509518342840582
aF-0.014980468272075342
aF0.0037992374539432693
aF-0.03115876911374317
aF0.013338477098361995
aF-0.02389737387822707
aF0.00989720025199998
aF-0.014324890164122216
aF0.0097480079818356
aF-0.06417651816885235
aF0.12369454752210522
aF-0.016416288069725424
aF0.015506941229603798
aF-0.0016963421511236516
aF0.02425628962797505
aF-0.013835954677667909
aF0.030653052260069376
aF-0.002005068734963001
aF0.01912984035520464
aF0.01959141179246769
aF0.03992105648854848
aF0.0012378238360837852
aF0.05689664650037914
aF0.0683053028928126
aF0.08850063453569894
aF-0.06107224687277693
aF0.07709534812550906
aF0.011135684318813635
aF0.038680173824723184
aF0.1416512610182407
aF0.040531521328307944
aF0.1567624762559665
aF0.07882305806849266
aF0.0922079489910753
aF0.05702953335842552
aF-0.00368180998470883
aF-0.001079178950735673
aF-0.027618421901680776
aF-0.21165894727071943
aF0.0036176508493537944
aF0.004264175032526313
aF0.24136861499598503
asI23
(lp25
F-0.1318488869871925
aF-0.06518679446440431
aF-0.165381850496687
aF-0.03267437093047799
aF-0.14972831129807462
aF-0.03265328243983558
aF-0.012164967459418466
aF-0.0798310213463173
aF0.06197837111490282
aF-0.08921365886797691
aF-0.03213538232034913
aF-0.05303258671630981
aF0.0013667055303173933
aF-0.0395951222165396
aF0.00676447680649008
aF-0.016468614669805762
aF0.003702826812594772
aF-0.029377761550723667
aF0.014063263043634056
aF-0.02547456694112524
aF0.007446695434334097
aF-0.0124367243321601
aF0.0077697111704760615
aF-0.05901422951654968
aF0.1255705356259233
aF-0.015400027056712907
aF0.01028410858394235
aF-0.006270799122416669
aF0.015277770026558677
aF-0.012714600801056285
aF0.030996886400403188
aF0.0041718519061790735
aF0.014666185760518676
aF0.02209478005026616
aF0.04807119660284278
aF0.0018174506959794637
aF0.052356604298374396
aF0.070953340004795
aF0.08431638583298422
aF-0.05534060112636698
aF0.07439453461396124
aF0.011161561259798792
aF0.040043539678913984
aF0.14167373064858854
aF0.03371114887816397
aF0.16137767480055562
aF0.0835682151124913
aF0.09278422482186982
aF0.05028142265152163
aF-0.004039619725191173
aF0.001720422688726713
aF-0.028277740025884835
aF-0.21302061828328434
aF-0.000555546672328648
aF-0.0001494341367258107
aF0.24182550468424363
asI24
(lp26
F-0.13170569036678012
aF-0.06650698468219729
aF-0.16624010047721088
aF-0.026344361491826417
aF-0.14856292400522464
aF-0.03272506981491664
aF-0.011775582846062126
aF-0.08127868732997211
aF0.06413571664323353
aF-0.0838555648761976
aF-0.03276966720971452
aF-0.05895681962777744
aF-0.0010188308765389342
aF-0.04508569754780255
aF0.006246484265266917
aF-0.01643186987073896
aF0.0007112829685090016
aF-0.02464445378035509
aF0.010797583378365191
aF-0.017564294256104472
aF0.004310917105253613
aF-0.01644812532131787
aF0.0095278885610209
aF-0.062099578873301586
aF0.12036816771202187
aF-0.01908695428747444
aF0.00891973978326919
aF-0.002519994063040904
aF0.019767766409469735
aF-0.013588130858058142
aF0.03197508023521735
aF0.0042473428917754385
aF0.013040007380731642
aF0.023998108187472902
aF0.04109022608619377
aF0.0008562134083554133
aF0.0571164985218678
aF0.0724439395862907
aF0.08897242639567417
aF-0.06173827655857207
aF0.07636989816822672
aF0.012463132872378978
aF0.04285222411185396
aF0.13745066095810876
aF0.03820862973441624
aF0.1629417075112363
aF0.08765025789959681
aF0.09120966935255655
aF0.05340950381203191
aF-0.0006819950422299922
aF-0.0049115669699231704
aF-0.027313033712005306
aF-0.2125050790036126
aF0.0034555958682385905
aF0.0013192857318760024
aF0.23980140312932854
asI25
(lp27
F-0.1325658598255184
aF-0.06790127399872578
aF-0.1683230298022936
aF-0.02599191530261751
aF-0.15243753499486254
aF-0.031026753440031238
aF-0.01036966348104439
aF-0.08191779512605908
aF0.060666384678557055
aF-0.08599078102807547
aF-0.031067534187925936
aF-0.05174807316148991
aF0.007244512034719394
aF-0.03795970910891503
aF0.007211331919932655
aF-0.018775619555173064
aF0.0036445338985192266
aF-0.02590106916590153
aF0.009323419655868945
aF-0.01788310104695435
aF0.005101385743011863
aF-0.010995938367646629
aF0.016550664002827765
aF-0.06557424787290807
aF0.12693371807923143
aF-0.010960169921664396
aF0.017020487834884124
aF-0.011286230071950402
aF0.017075258444990013
aF-0.003996195591448317
aF0.02701499839538447
aF-0.0011229567936767114
aF0.017799178606748643
aF0.02512647200348027
aF0.04717687114186425
aF0.0024414257922473074
aF0.06028014599883921
aF0.07075229304234738
aF0.08963458507926053
aF-0.05431775201515405
aF0.07507364421661361
aF0.007135324931795093
aF0.03734534050812465
aF0.14016442679072236
aF0.033465203820504545
aF0.16278345095639665
aF0.0831140352637208
aF0.09195755061535152
aF0.05233015812936288
aF-0.0031937220730775782
aF-0.0029379691204784496
aF-0.02722550458690623
aF-0.21349540141465623
aF0.00140989505376615
aF-0.0028201657998561413
aF0.23954813889150756
asI26
(lp28
F-0.1328096902801857
aF-0.07098512080688868
aF-0.1648115786282429
aF-0.03072799905836564
aF-0.14828183936469994
aF-0.03549425193779506
aF-0.008193843169131106
aF-0.0809407632221152
aF0.05992197216586275
aF-0.08389293618229939
aF-0.027661148900913604
aF-0.05442046685217333
aF0.0011352154319465347
aF-0.03734904716731085
aF0.008480514594141604
aF-0.01534618956757184
aF0.0019516003284143545
aF-0.027251728399673623
aF0.006363138746881175
aF-0.0207366860859628
aF0.010122477302068765
aF-0.015288418806885801
aF0.015474764997239149
aF-0.06532590791208312
aF0.12060726207797999
aF-0.013345213830376148
aF0.012175031740012249
aF-0.008657560986779679
aF0.020112998695401698
aF-0.01128538274888421
aF0.02494564524356016
aF0.0019633558984910337
aF0.011903347312672665
aF0.022638933788793097
aF0.04957511683499884
aF0.0056765497506439
aF0.056533331236155455
aF0.0680930847929713
aF0.08354199253029432
aF-0.05877267677516998
aF0.07935763936436835
aF0.007104719217276529
aF0.04129405249992808
aF0.1424614344680965
aF0.03659765328984193
aF0.16146134084369806
aF0.08394085177198446
aF0.09031765074572952
aF0.05181881384781465
aF-0.003945726244856345
aF0.002280269987837424
aF-0.022782458043272426
aF-0.21070520460345135
aF-0.00048394920403073676
aF-0.0006189749254227268
aF0.23825326465516877
asI27
(lp29
F-0.129840496621813
aF-0.06483369677212483
aF-0.16509040629408211
aF-0.033513035013004094
aF-0.15037068882233418
aF-0.03222192965007496
aF-0.006997936902929143
aF-0.07548332005269444
aF0.06046302832251762
aF-0.08895548325031664
aF-0.031379803631462075
aF-0.0588594442067388
aF-0.00026301775985564216
aF-0.037640670421732005
aF0.011295471001831925
aF-0.015411370579858539
aF-0.00026553509006981
aF-0.029094929313604564
aF0.00727161113042403
aF-0.021879613602140396
aF0.002044204550533801
aF-0.014562848405142825
aF0.008895829035205029
aF-0.06349702024839475
aF0.11993219668969135
aF-0.018601894394117552
aF0.01700257979992382
aF-0.007932318753411348
aF0.015314214927294933
aF-0.010704538177927285
aF0.02556608411751974
aF0.0023916458478375215
aF0.019561039836739243
aF0.01816738023513129
aF0.04717204435219856
aF0.003311751120418786
aF0.05715541858691062
aF0.06698857731655741
aF0.08901966859315537
aF-0.05400107772768786
aF0.07986783682213368
aF0.015225234254159717
aF0.043670102499721385
aF0.13922107199176803
aF0.03956902688703263
aF0.15946513920759975
aF0.0794263797832791
aF0.08821606136609685
aF0.05346710114579706
aF-0.004949363386487282
aF0.0019709327285078663
aF-0.024835332396060113
aF-0.21180126093463758
aF0.004349854744733943
aF-0.003796228409621012
aF0.2421732469881982
asI28
(lp30
F-0.13189687028720345
aF-0.07134904742858839
aF-0.1649490436504916
aF-0.028346307769745328
aF-0.15158502909638297
aF-0.02817570452471356
aF-0.004940093168278955
aF-0.07639191618030823
aF0.060015203030507024
aF-0.08566399012015204
aF-0.032045237669535445
aF-0.054946454414179176
aF0.003779252884839288
aF-0.03739656224822918
aF0.00867998075866289
aF-0.012714390693184006
aF-0.0027219325484692863
aF-0.02788454081428784
aF0.013390214535190409
aF-0.023740899704894212
aF0.002867154419398291
aF-0.016302764170852524
aF0.006982023201764408
aF-0.06706755045494855
aF0.1274296465633905
aF-0.01830669489445196
aF0.009107228158903849
aF-0.009298663253776568
aF0.020012311335159346
aF-0.006190964532102377
aF0.03379772119551469
aF0.0034196144552914396
aF0.020281821739688975
aF0.01964083012682722
aF0.040279446465783075
aF0.005688393796403728
aF0.05421129404183591
aF0.07199926930077868
aF0.08863303103982761
aF-0.0557521447298561
aF0.08061023734428441
aF0.01493464226484634
aF0.03694099987799969
aF0.13812265332583756
aF0.03313784122543941
aF0.15816577302676152
aF0.08254097327733999
aF0.08898807521751165
aF0.0590191825207835
aF0.0002833234593537849
aF0.0015498332874934594
aF-0.028441910928866287
aF-0.2116273490864092
aF-0.0009594595382082439
aF0.0022167656158312466
aF0.24298690272938647
asI29
(lp31
F-0.13430129239922317
aF-0.07276661421325739
aF-0.1655540947769359
aF-0.033235886469796465
aF-0.1476419311957148
aF-0.030510668496908786
aF-0.006071375698888173
aF-0.07291571633848004
aF0.055738652534195125
aF-0.08504662215198261
aF-0.033276968019096326
aF-0.055015160471836445
aF0.0006469709715842626
aF-0.044630453762134856
aF0.009575513652027703
aF-0.020388994660064292
aF0.0032776755832784345
aF-0.023193454221737138
aF0.010386977473208443
aF-0.024656601174685315
aF0.0025533136122715037
aF-0.01372117255912394
aF0.011044398681149974
aF-0.06125319689875863
aF0.11935085097058652
aF-0.016505252928636926
aF0.014279078259212468
aF-0.008421472626098362
aF0.018930944389690375
aF-0.004515197502433483
aF0.025846472404079418
aF-0.004788459981996042
aF0.012949602749679488
aF0.023732065777072684
aF0.045451322863186996
aF0.004666371324643916
aF0.051846322320596785
aF0.07234879374598811
aF0.08831995304938185
aF-0.05681123195942174
aF0.07245977228890212
aF0.01211818265222811
aF0.03726148635591156
aF0.13825809945213388
aF0.037589382467808206
aF0.16022651603020413
aF0.08139722764485419
aF0.09461082561797181
aF0.05140876308424052
aF-0.002380188418041023
aF-0.002560759076642795
aF-0.027152233870898077
aF-0.21163994313763831
aF-0.0022967694233878514
aF-9.814401740119529e-05
aF0.23701626954644509
asI30
(lp32
F-0.13334935939761575
aF-0.07181577791233819
aF-0.166946649654305
aF-0.02766446004226039
aF-0.15015664657090003
aF-0.03154903795522576
aF-0.010530344549121827
aF-0.07537509810515954
aF0.0643046058482512
aF-0.08607385443649034
aF-0.027972494966813467
aF-0.05458961353818847
aF0.004759823726624322
aF-0.042501183660962706
aF0.01347624253681241
aF-0.019280503200320313
aF-0.004753829354658145
aF-0.026156616725276388
aF0.013249831228904435
aF-0.018141735828083833
aF0.009285975651950476
aF-0.018240181915353683
aF0.013709454160186636
aF-0.06444880670106906
aF0.12054043503838789
aF-0.01202419503907788
aF0.010995403904392718
aF-0.00813882953352679
aF0.01453763412608115
aF-0.010360252365812228
aF0.03149971488114888
aF0.003996461018421671
aF0.015242246819177107
aF0.026263995456067255
aF0.05005707093601354
aF0.0028523117229427926
aF0.052063634799810146
aF0.07199018568767415
aF0.08787326743163497
aF-0.05447678433485376
aF0.0794522269216517
aF0.014914881438405707
aF0.045296560392792645
aF0.13584355313397614
aF0.035444751499443226
aF0.15963498528779446
aF0.07984655709980691
aF0.09056518971691974
aF0.05794025295434292
aF0.00452907496507163
aF0.0036318575800554785
aF-0.025557632520877876
aF-0.21134450833882795
aF-0.0008987434903008392
aF0.0004244185893116298
aF0.24344792797256087
asI31
(lp33
F-0.1320781608166877
aF-0.06547220977330681
aF-0.166943221701198
aF-0.0336159521081696
aF-0.1517099827169039
aF-0.02795874571237417
aF-0.012012243033275135
aF-0.07595822520777862
aF0.05732435636514619
aF-0.08350072258292605
aF-0.030834034288259916
aF-0.057349045824529724
aF0.0058554096523959695
aF-0.04032057213498579
aF0.006548030560800526
aF-0.015829279847236546
aF0.00044158178860512724
aF-0.03118582718857278
aF0.011585569084439844
aF-0.019079718801665792
aF0.008312829451171589
aF-0.016589412132664787
aF0.01239108245911779
aF-0.06397135704804488
aF0.12289659388436666
aF-0.013646138978529601
aF0.01277319559118201
aF-0.004998706166309552
aF0.016786798837690114
aF-0.004805050380185112
aF0.03303729578378836
aF0.0013538126911554055
aF0.01342598079808954
aF0.019411309374142045
aF0.04938497577519623
aF0.004425949124720498
aF0.05346163206034527
aF0.0746100797860551
aF0.08247183696562782
aF-0.05617748607543517
aF0.0728819852682404
aF0.012844683559718989
aF0.04480451453050648
aF0.13888495900892972
aF0.03877012849259128
aF0.15952639733362362
aF0.08533050776726761
aF0.09386395978096998
aF0.054000020017703716
aF-0.003576788579097829
aF-0.004186991184674498
aF-0.02709967475625255
aF-0.21191335532560257
aF-0.00040769359501623034
aF-0.0005411753987519704
aF0.2381997836535545
asI32
(lp34
F-0.13204613021627373
aF-0.06589109100176851
aF-0.16687158018230308
aF-0.02889948608178299
aF-0.14827640731630787
aF-0.02800335209768179
aF-0.005602596486599484
aF-0.07956352168901414
aF0.058420170078119144
aF-0.0872334148697453
aF-0.029105854877867356
aF-0.05692158400646547
aF0.005466024385846448
aF-0.03813395004023857
aF0.008258926301912705
aF-0.018649850210049456
aF0.0023207633927643783
aF-0.03042655722680218
aF0.005967608104719323
aF-0.02247985894333222
aF0.007474672062253139
aF-0.01936090828908512
aF0.013242323517709818
aF-0.061517379332755646
aF0.1280742609379673
aF-0.012550192383511174
aF0.012433217829747949
aF-0.009372943097056087
aF0.017294186305957877
aF-0.011709122379860225
aF0.02882999911507021
aF0.0043701027964796356
aF0.01871728116470979
aF0.023802604228285257
aF0.04792136510500084
aF0.0015820170210149114
aF0.05889261759136362
aF0.06793058146406576
aF0.08097054901404901
aF-0.057604892870489185
aF0.07686996757367787
aF0.00904435262626199
aF0.036202538510842826
aF0.14287741207340263
aF0.037644003624460014
aF0.15883180088838833
aF0.08040617222994749
aF0.09311836065150321
aF0.058065634274207786
aF0.002357326303141621
aF-0.004986498511583817
aF-0.02691723728566212
aF-0.2118973656445022
aF-0.004404041181631898
aF0.00492881296065456
aF0.24016388744335943
asI33
(lp35
F-0.13262063371455182
aF-0.07086417302017983
aF-0.16729428780113906
aF-0.026635989500895775
aF-0.14927390220079692
aF-0.036679854366074065
aF-0.01043529942796621
aF-0.08176257026631364
aF0.06053057981487891
aF-0.08390089480210787
aF-0.031579514367589885
aF-0.05400171184002893
aF-0.000699199410575848
aF-0.04446752230145443
aF0.0071063801231068015
aF-0.013171798273998794
aF-0.0007397007372906485
aF-0.022537729807722937
aF0.008316293075407993
aF-0.01998580994014658
aF0.005256577457228902
aF-0.01688032861365159
aF0.014488603071270064
aF-0.060068907573304235
aF0.12873968547558967
aF-0.0141007192146924
aF0.008828191085378172
aF-0.008551182050059553
aF0.023378678491832637
aF-0.00584981369910605
aF0.024488450525758796
aF-0.0021658258659940336
aF0.01550167026645514
aF0.020733030896246566
aF0.0411914118173886
aF0.005405699857493833
aF0.06114294559206606
aF0.07376279178996999
aF0.08831998352876136
aF-0.056757234820429214
aF0.07692060009633532
aF0.014991386117386799
aF0.04494019809809383
aF0.13880663372355329
aF0.03565488594489668
aF0.16202545643660232
aF0.08144739394165272
aF0.08957525160889236
aF0.056473519310205715
aF-0.0017910460121323734
aF-0.002618581201119953
aF-0.023063837186230864
aF-0.21144921795113336
aF0.0007369734386955855
aF-0.002512255233464327
aF0.23927871248285013
asI34
(lp36
F-0.1329656936644879
aF-0.07038629293015435
aF-0.16409673928148016
aF-0.03374537918254111
aF-0.15074768944253458
aF-0.031491239764466765
aF-0.006551466612070991
aF-0.07838353371033997
aF0.0634377369026285
aF-0.08341841838642437
aF-0.028409895320394965
aF-0.05764913406324053
aF0.004697932186530235
aF-0.04333302874174015
aF0.005836177693462551
aF-0.014328007564143066
aF0.00428415741869869
aF-0.023537287562652512
aF0.015089809644296603
aF-0.017763048883021704
aF0.005614122426483903
aF-0.01715392656979393
aF0.011594063598923572
aF-0.05962301403477001
aF0.12496555884517686
aF-0.016654246949183205
aF0.008254635617324212
aF-0.010341902467565299
aF0.014696586031495314
aF-0.009469285383804834
aF0.028775478909454137
aF-0.0013749099421601334
aF0.013776996510426494
aF0.021027874146460335
aF0.044072090252043984
aF0.00461597205824085
aF0.055559364281452285
aF0.06637255570712183
aF0.08100116402278883
aF-0.06005430723983946
aF0.07269474115684552
aF0.01320123021806122
aF0.03953556932414097
aF0.13824013612627672
aF0.03702508756766939
aF0.16183133232682362
aF0.08356113138946464
aF0.09197171349172725
aF0.05649370304067837
aF0.0032171481727622793
aF-0.0007971232877024605
aF-0.031286896767343995
aF-0.21072236918775963
aF0.00287448919246544
aF0.0035611192487272365
aF0.2396515063038091
asI35
(lp37
F-0.13036242688574107
aF-0.06412548279464146
aF-0.16710313805279556
aF-0.0315446362084399
aF-0.15045751260638243
aF-0.03159802460018844
aF-0.0117524832973096
aF-0.07355502718478825
aF0.05942468438204551
aF-0.0809210847522887
aF-0.02754677056544152
aF-0.050745146221747806
aF0.007943051366784472
aF-0.044514479360696683
aF0.011426499645913113
aF-0.01954060987927148
aF-0.004700332343359904
aF-0.02908969523078706
aF0.015216399394929853
aF-0.022121886368883695
aF0.0032392347526178982
aF-0.019147084790294616
aF0.013857519341098088
aF-0.062517957472759
aF0.12516993205824833
aF-0.019644187605250343
aF0.01461930426128981
aF-0.009149850682668898
aF0.014915412253911044
aF-0.007454847961426153
aF0.027275037741595367
aF-0.0001338543095093786
aF0.0210123460994742
aF0.02635726809193029
aF0.045360061084454575
aF-0.0025768613334293247
aF0.06118469574750628
aF0.06817453456174202
aF0.0851824755028607
aF-0.05230744435424859
aF0.0788541118975944
aF0.005831141846436693
aF0.04356549006530371
aF0.14255394534636961
aF0.036908416397753906
aF0.1585354866840787
aF0.07849141583384596
aF0.08903413113432351
aF0.05066859625000014
aF0.004986175669068036
aF-0.003762766831515854
aF-0.02592209935217986
aF-0.209587490437856
aF0.0024261275567290614
aF-0.003190628459918215
aF0.2408862044251529
asI36
(lp38
F-0.1325204947665517
aF-0.06898257107520149
aF-0.16587272035624803
aF-0.03306800000875632
aF-0.15076674784299238
aF-0.03424402932459009
aF-0.0051513115111643405
aF-0.07375781031926504
aF0.06482605948733937
aF-0.08672043470833057
aF-0.027487992377882832
aF-0.05744933875448052
aF0.007332172965230502
aF-0.038250348797813874
aF0.013662189700167013
aF-0.01683276383604053
aF0.00439421445394282
aF-0.024121643155453083
aF0.009241678195775057
aF-0.019638858432917655
aF0.001900698639544635
aF-0.011971679447669437
aF0.014018090944332512
aF-0.06463706912826207
aF0.12055446628308729
aF-0.018932515580586378
aF0.014310676504752685
aF-0.0022880254520701014
aF0.01972329341043274
aF-0.009028221733993697
aF0.028018801278808025
aF8.891807120341317e-05
aF0.015736637084731234
aF0.017386093258698714
aF0.04289115283787559
aF0.0014899127921208664
aF0.06051620000345715
aF0.07081032793901994
aF0.0870189571440168
aF-0.06112980039832509
aF0.07324007205652205
aF0.01048751768099817
aF0.03661029172378672
aF0.13716161754945128
aF0.034991672997020114
aF0.15864703236666758
aF0.08126922745707078
aF0.09334224564471419
aF0.05572161092805588
aF0.0047749266616903515
aF0.0022541973682393105
aF-0.02939185074735438
aF-0.21164932358270713
aF0.002345288690055717
aF-0.004396384762678344
aF0.2402433056156498
asI37
(lp39
F-0.13432509122358796
aF-0.07061056130899833
aF-0.16754339731948503
aF-0.027957477767205054
aF-0.15167844158601834
aF-0.02847995295823872
aF-0.008949965341067418
aF-0.07705334615942232
aF0.06335639465151334
aF-0.08454105527266574
aF-0.028286074083537737
aF-0.05925515992664
aF0.004215982775994874
aF-0.03932942166809357
aF0.013866969057183723
aF-0.02019906073461461
aF-0.004238701385614178
aF-0.025894202676505464
aF0.014589817051097008
aF-0.016581987785321464
aF0.010170766180723361
aF-0.014190477081632919
aF0.010179713631761024
aF-0.059766498585054936
aF0.12720232666712716
aF-0.01106884582520721
aF0.009541643079026958
aF-0.0015672199710099791
aF0.022978162012341104
aF-0.007942397249311214
aF0.02962317063684627
aF-0.004261480321435932
aF0.015537195841145247
aF0.017625655991517945
aF0.04589580291760494
aF0.0009002892650418776
aF0.06033082441088276
aF0.07065785848732842
aF0.0834716669329489
aF-0.057418910393401995
aF0.07390747851641682
aF0.013470566315781989
aF0.04364786901917929
aF0.13720174161514387
aF0.03902374463214837
aF0.16079251824890928
aF0.08626115948774343
aF0.09361452601306317
aF0.05259606173280368
aF0.00489425531320122
aF-0.0015552764892610399
aF-0.029886986846130476
aF-0.2111376264137659
aF0.000600343438082229
aF-0.001580998129183228
aF0.23842168802112304
asI38
(lp40
F-0.1313570220960769
aF-0.0698780843677761
aF-0.16733802519816432
aF-0.031248606944434536
aF-0.15172538522857013
aF-0.02808608799140649
aF-0.010267756016152773
aF-0.07918853543727385
aF0.06008616170800825
aF-0.08569292698334247
aF-0.03203484549956167
aF-0.05167124950483163
aF0.004365066690009396
aF-0.04453439209162344
aF0.014933346024252604
aF-0.013443108147915448
aF0.0024159982419793514
aF-0.02980912254800002
aF0.006778828891249256
aF-0.017446447054624822
aF0.009470292208755915
aF-0.017843116502301404
aF0.0074578598267298814
aF-0.05991100465287372
aF0.12725788824603362
aF-0.01543810906598494
aF0.012188586897122357
aF-0.0019352881549448684
aF0.02322307659813649
aF-0.004483600321654161
aF0.03059570203160614
aF-0.001048512611814781
aF0.01363137063151621
aF0.023759899713055574
aF0.0456593401078871
aF-0.002012875447886641
aF0.05186450818504172
aF0.07424041704717169
aF0.08825517814452885
aF-0.052455660854064445
aF0.07141262297713938
aF0.011072388973842691
aF0.03680132226723807
aF0.13530338020348928
aF0.03263402306508377
aF0.1606637145951176
aF0.08397995077823736
aF0.09037909985683829
aF0.0587453351271315
aF0.00428307309845811
aF-0.002609290528856749
aF-0.031068825244031432
aF-0.21204613132284808
aF-0.004144569536779081
aF0.0019133726015498917
aF0.24332770433180076
asI39
(lp41
F-0.1340807020126404
aF-0.0654330514625754
aF-0.16697529086172433
aF-0.029658840844976095
aF-0.15005641222350152
aF-0.03546116344158753
aF-0.008675398036474852
aF-0.07460728509135808
aF0.06294082612192167
aF-0.08468434135646286
aF-0.03307842898334483
aF-0.05840423331425739
aF0.004475327514950711
aF-0.043090733547646816
aF0.009186675024082297
aF-0.01314388436748328
aF0.004038443430634841
aF-0.02849880435060126
aF0.010487583371587174
aF-0.024449593399537162
aF0.0065724724751287135
aF-0.019540205117288455
aF0.015697769216177555
aF-0.06530408964458355
aF0.12622674234003348
aF-0.012988935164275643
aF0.011850418693495682
aF-0.009993786544148042
aF0.02191702731777809
aF-0.007042554522472439
aF0.025502819113280104
aF0.00038694990816438596
aF0.020448143285115152
aF0.025897361273730518
aF0.049511077789665056
aF0.006713694906208095
aF0.06034219777448023
aF0.0712357734638905
aF0.08454603305318108
aF-0.05662499801837544
aF0.08044926094063438
aF0.011227773819604693
aF0.04531936994991226
aF0.14172188216109524
aF0.0390341667326463
aF0.16008397263569868
aF0.07968114475053235
aF0.09441281662573298
aF0.05086705848712126
aF-0.0019240857482009251
aF7.589350704115747e-05
aF-0.03245867201377448
aF-0.21194343581166494
aF0.00016689117611579736
aF0.0008389310676437183
aF0.23749183613436703
asI40
(lp42
F-0.1321638921080728
aF-0.06795656092169637
aF-0.16792797815358554
aF-0.029448312221918523
aF-0.15286124600898368
aF-0.035147128082006866
aF-0.004339572286169766
aF-0.07447976955970255
aF0.06443781660345137
aF-0.08840946518668517
aF-0.030843776554140584
aF-0.05242283929262046
aF0.0071868387298230745
aF-0.04150224837589815
aF0.009363296189520512
aF-0.0196990367565871
aF-0.005221194407412245
aF-0.02646997566105848
aF0.00915490475910192
aF-0.02290821171905263
aF0.007809867130715672
aF-0.012498239829851114
aF0.014170176379840154
aF-0.06119738651305645
aF0.12560664256086518
aF-0.010638415264281135
aF0.014561119264341596
aF-0.008007229014060849
aF0.017697936132097157
aF-0.012160199499802678
aF0.03331238648474992
aF-0.004384799140780503
aF0.020234711422023918
aF0.026494979065377507
aF0.04446193824451705
aF0.0014962394646334152
aF0.05293925810092096
aF0.0745587904092635
aF0.08917744336788033
aF-0.05873300229682484
aF0.07816629949449978
aF0.013601866337271423
aF0.03926139615117177
aF0.13593847881634757
aF0.03385332741551212
aF0.16054731338920403
aF0.08713400669406149
aF0.09227224001677607
aF0.05371738491440956
aF0.0033403696217425517
aF0.0001782356447116453
aF-0.02706779477120344
aF-0.21129095427304267
aF-0.0010365142006850698
aF0.000981540408857902
aF0.24059537023496377
asI41
(lp43
F-0.1328721100546872
aF-0.06455316136884341
aF-0.1690276832714379
aF-0.03276507662137681
aF-0.14933981576000724
aF-0.03320527892743558
aF-0.012662559237169541
aF-0.07819795653066508
aF0.0638893169903956
aF-0.08363402373275217
aF-0.03173253655368217
aF-0.05917831169947754
aF-0.000757089722737795
aF-0.04460206170812488
aF0.01253111148949619
aF-0.014790013879747661
aF-0.0028478513183942773
aF-0.027142536472637938
aF0.014525068025483355
aF-0.023831624985399383
aF0.0062995019742709425
aF-0.018649276464875523
aF0.008087358912245296
aF-0.059749736371209235
aF0.12266399181672252
aF-0.014819364486866464
aF0.011099094715020266
aF-0.002347611708143252
aF0.021357338149521666
aF-0.009473325574516075
aF0.030826284121813406
aF0.0017580954447361
aF0.015617579784486479
aF0.025983568608819944
aF0.04079694899511773
aF0.004659953216709563
aF0.06063043779378014
aF0.06942248613664105
aF0.08619046500962031
aF-0.05384141512922805
aF0.0750713210088757
aF0.015301824585512137
aF0.04572239040411085
aF0.1437552470084212
aF0.03528758122364362
aF0.16316293205443708
aF0.08564430091091768
aF0.0914930591540603
aF0.05390987575304657
aF0.00019132140830516642
aF0.0038760969632006107
aF-0.025536585942281843
aF-0.21250959938668718
aF-0.004004213340731529
aF0.004448427805075305
aF0.23877648998512807
asI42
(lp44
F-0.1323195025381554
aF-0.06655879736854792
aF-0.16523927347819226
aF-0.028042696631165508
aF-0.1492534552006246
aF-0.029156947404188522
aF-0.005575532287549212
aF-0.0739277322241259
aF0.05774645865864682
aF-0.08988274117944213
aF-0.026678790369429446
aF-0.05534129086862979
aF0.0016937250313835157
aF-0.04026251805265926
aF0.011972320311019663
aF-0.01732449275480538
aF-0.0006500981343352162
aF-0.025922614493322702
aF0.014913888724904113
aF-0.022260907612742797
aF0.005797514801256218
aF-0.012034711496706686
aF0.007740000886762153
aF-0.06525416953965989
aF0.11989581959782258
aF-0.013474694399590327
aF0.015174614808258885
aF-0.0032792825998813812
aF0.01661159908136907
aF-0.012101476160184145
aF0.028173384543204474
aF0.0009206031316118044
aF0.019881669128116293
aF0.023693107841901456
aF0.04196508057020222
aF0.004055175463478197
aF0.05219016044024147
aF0.06971014200171671
aF0.08746578625513324
aF-0.06082565170155963
aF0.07544857328323828
aF0.00670169274197732
aF0.04514586022538424
aF0.14133872935974667
aF0.04248318586589358
aF0.1583030951067437
aF0.08030837989302711
aF0.09282355127413783
aF0.049808696465159244
aF0.003696469893101405
aF0.002995178084451979
aF-0.03120620513449422
aF-0.21117876825273077
aF-0.00482548376531357
aF-0.0035928207533541404
aF0.23988999497667923
asI43
(lp45
F-0.13307401468338118
aF-0.06957805518750282
aF-0.16645397058842745
aF-0.030973719874854734
aF-0.14792050154430758
aF-0.02903579349325651
aF-0.006028876103050184
aF-0.08065397753706748
aF0.06352274928859145
aF-0.08580625534014878
aF-0.03258758135966985
aF-0.05235007673447954
aF0.006970058614700184
aF-0.04493400327716427
aF0.01426596079845728
aF-0.01301502663711139
aF0.0016956811555974658
aF-0.02537856708761343
aF0.012016368121206222
aF-0.020252380589942224
aF0.009338407443643372
aF-0.017670996374918452
aF0.008064934553178018
aF-0.06524226728392894
aF0.12638738281794218
aF-0.012938577701824496
aF0.009270956195048198
aF-0.007481944928497141
aF0.01890339593830057
aF-0.004743597866009474
aF0.026326194522245397
aF0.0014239967659626627
aF0.014089762228069454
aF0.021507946891485875
aF0.042602270253711313
aF0.0016826789535248025
aF0.060091174499593
aF0.07123128928673012
aF0.08061414631945231
aF-0.05744542398071694
aF0.07367154716609735
aF0.011283169101117617
aF0.037598622479131046
aF0.14297803306098394
aF0.03419091246721598
aF0.1609534994100316
aF0.07929753963212868
aF0.08916409212599427
aF0.05301958535562728
aF0.003295299461264754
aF-0.002368098149483761
aF-0.024471613502753668
aF-0.21106239123901122
aF-0.002348767470647822
aF-0.00048246591687214386
aF0.23871483383791386
asI44
(lp46
F-0.13464192099966962
aF-0.0704239985304119
aF-0.16519444392229102
aF-0.03274933199772913
aF-0.14774308166459657
aF-0.03168296425816632
aF-0.009878349719126477
aF-0.07933881783528479
aF0.055932332097284675
aF-0.08747397667514405
aF-0.032535109972239455
aF-0.053383737144542254
aF0.0022881702566286827
aF-0.040661003575849536
aF0.007142027329212303
aF-0.02098279659363433
aF0.002394703306107668
aF-0.029992193103560952
aF0.015413213168218972
aF-0.023344675831343805
aF0.0021217629629536115
aF-0.011763908680446074
aF0.009247887730406253
aF-0.05990400440327764
aF0.12098390399422167
aF-0.011762159616419172
aF0.017361497341081392
aF-0.010408719838247617
aF0.02115067543820601
aF-0.006277083924993422
aF0.02868577749614085
aF0.004190978274765665
aF0.020281225708960272
aF0.017010924887815273
aF0.043937868652841834
aF0.006467528378351035
aF0.054507942095147845
aF0.0711796108078913
aF0.08780931159206332
aF-0.05507214850779453
aF0.07172104411458367
aF0.015000878561497623
aF0.042515377773308854
aF0.14385147784779156
aF0.04322001734870837
aF0.1594685009938106
aF0.08336950955897651
aF0.09493613535371614
aF0.05964180919771202
aF0.0023458406833993927
aF-0.003357543086765861
aF-0.03130604569190095
aF-0.21301968951320285
aF0.0025745672609446533
aF0.003194266054650603
aF0.24155680469062393
asI45
(lp47
F-0.13331409637487873
aF-0.06657817394764941
aF-0.16737956558141695
aF-0.030448512290581615
aF-0.15172213664541512
aF-0.033935697818605184
aF-0.004459879196580158
aF-0.08133194521041198
aF0.05676211527977199
aF-0.0816770170506657
aF-0.03135908285784874
aF-0.05443014234732405
aF-0.0003181332570547601
aF-0.03916042690976308
aF0.010186432763721697
aF-0.021451199390097056
aF0.00020019130984428446
aF-0.029950232904277407
aF0.014185960273198666
aF-0.018625334420119707
aF0.003789674326131688
aF-0.010126241638670477
aF0.009539679352375034
aF-0.06091869427212538
aF0.12540567034002437
aF-0.015018366175371722
aF0.012487236276443034
aF-0.010496557055762868
aF0.016192271862142726
aF-0.006188891886907407
aF0.025425371806510468
aF0.003284903611112994
aF0.014934832714858735
aF0.02416576020965765
aF0.042896824777418734
aF0.0012899541833007173
aF0.05370854945626728
aF0.07288773980569858
aF0.09018347710399799
aF-0.053088644384269634
aF0.0727377225836249
aF0.015385253321985324
aF0.03783373814425905
aF0.13915827631760022
aF0.03708378580761632
aF0.16164669913498098
aF0.08642401662587795
aF0.09367503767646952
aF0.053416017937864844
aF-0.0006525635138146949
aF0.0003599893428663859
aF-0.026631913308185245
aF-0.2129399288950213
aF0.002412602438700605
aF-0.004591890618997752
aF0.24104765541270265
asI46
(lp48
F-0.13335358375309606
aF-0.07318607455790403
aF-0.16534024107964304
aF-0.032967773302604184
aF-0.15109930195584617
aF-0.02869270852482248
aF-0.006062845345062339
aF-0.07998941682859431
aF0.06418186609422515
aF-0.08310853531894198
aF-0.03194634895566241
aF-0.05563630952084282
aF0.006366583409954534
aF-0.04493598056143091
aF0.013627318828010798
aF-0.020102167306403684
aF0.0006229868008369564
aF-0.030889967266895604
aF0.009238889207927441
aF-0.02520717230776537
aF0.011258108751696234
aF-0.01788187939846618
aF0.0072846409398857614
aF-0.05968140223703052
aF0.11970283831900075
aF-0.015183254515495381
aF0.013201083029226388
aF-0.009085009972793058
aF0.018592920468767437
aF-0.01357720690352327
aF0.030350096728063235
aF-0.0018817332022987017
aF0.011794064122441484
aF0.02358593644546569
aF0.04162162085501942
aF0.0033633388585857316
aF0.05809618646638685
aF0.07155211739743363
aF0.08229107623047709
aF-0.05477327487079491
aF0.07653276187334529
aF0.01269536509411739
aF0.036804614772924425
aF0.1409126535603774
aF0.0404557665856216
aF0.16302802012451412
aF0.08359416888595506
aF0.09150836735371097
aF0.05733486493775104
aF-0.004826660998324512
aF0.0017354595083220207
aF-0.023134722893709526
aF-0.21207308648998316
aF0.004054155873324687
aF-0.0029346171105609333
aF0.23756077209325893
asI47
(lp49
F-0.13307233857999387
aF-0.07100024714175349
aF-0.16636919518106755
aF-0.03283041707486941
aF-0.14967607141640585
aF-0.035234555738793326
aF-0.005236362631087768
aF-0.0812961727535554
aF0.060026417890838304
aF-0.08299121940760572
aF-0.02974818562663514
aF-0.05842421938957829
aF0.00497754320237213
aF-0.042363002320224684
aF0.01135942998745318
aF-0.017006405126470153
aF-0.002812059270732544
aF-0.02405214117994846
aF0.011412985883947702
aF-0.019305269998683813
aF0.007109064962523846
aF-0.013185019973458187
aF0.0072348983694463945
aF-0.06183262379823016
aF0.1236910621619877
aF-0.015837706859949674
aF0.016230793314973565
aF-0.0018750581462459173
aF0.017236268416559977
aF-0.0049585172171208655
aF0.030988294121171576
aF-0.0012334256100300976
aF0.014768904857804861
aF0.024930496785066963
aF0.04370180451503872
aF0.006871864878338086
aF0.05341852456866121
aF0.07106545586891329
aF0.09010146994059574
aF-0.058840262213637806
aF0.07549514209284512
aF0.007247999279430913
aF0.037956583472247195
aF0.13819712414161822
aF0.04040627715957791
aF0.1615260218521251
aF0.08542925831227362
aF0.0908770880395446
aF0.05378908084538737
aF-0.0020294224288697465
aF-0.004256216415931796
aF-0.023825284911282604
aF-0.21130242381046774
aF0.0005448058730677666
aF-0.003252096674287917
aF0.238493665582095
asI48
(lp50
F-0.13095798906980882
aF-0.07242898272562179
aF-0.16405783199493656
aF-0.029810012993884083
aF-0.1503159933849857
aF-0.03481067134279025
aF-0.009779786595129203
aF-0.07623177486116643
aF0.05906248780473872
aF-0.0811133533221928
aF-0.028348577102138752
aF-0.05914188725969652
aF0.007060281312498425
aF-0.04203324149828755
aF0.013635199735026566
aF-0.01940367863408059
aF-0.0011485557939560742
aF-0.029503197412568193
aF0.012942814052200087
aF-0.020107665504684884
aF0.0032141158612725646
aF-0.013819962105628305
aF0.007812994169568146
aF-0.06104089072721448
aF0.12131675363001651
aF-0.012668292791610771
aF0.011256566863705403
aF-0.01031523578198971
aF0.019436707512546135
aF-0.011432381667198297
aF0.03312034494885335
aF0.004175525773385646
aF0.021077979177360536
aF0.022313973844011657
aF0.04721723460988919
aF0.0018595529578393072
aF0.0588076658237402
aF0.06978724005890735
aF0.08270784819252013
aF-0.055817706576201824
aF0.07312337653916698
aF0.006100682239236485
aF0.03780278507702277
aF0.13671844248299073
aF0.0324999429108415
aF0.16163457802356998
aF0.0800212512526555
aF0.0890543298116137
aF0.058905194444729775
aF0.0016908566079481538
aF0.0038953744431506746
aF-0.0319496774979192
aF-0.20998074234966185
aF-0.003905246015341561
aF0.0033685418061691176
aF0.24281725316371763
asI49
(lp51
F-0.1331937023763168
aF-0.06791502239032919
aF-0.16607902092663104
aF-0.030859718654754877
aF-0.15258477676053045
aF-0.03372279131208771
aF-0.003959621404448288
aF-0.07629894759547297
aF0.06031006532701132
aF-0.0863960156643005
aF-0.028676114902834872
aF-0.054807034715819464
aF0.007120051993398162
aF-0.038366494962745745
aF0.006110394015327423
aF-0.01664600905062702
aF-0.0010942172523460253
aF-0.02875546957332858
aF0.007144319405447117
aF-0.021583605007343094
aF0.009506768017573611
aF-0.01563007350955266
aF0.013844014852279159
aF-0.06529338154733273
aF0.12016964094993773
aF-0.010284833180259788
aF0.014948868706396657
aF-0.006844668250385694
aF0.017523819169045447
aF-0.0067670390978190375
aF0.034001869541128535
aF-0.005294518386820085
aF0.013243075670795126
aF0.02634182722525901
aF0.047175304669555
aF0.006512687045398482
aF0.05940488037916529
aF0.06946830059919677
aF0.08333477886978274
aF-0.05528262592367519
aF0.07962919285975119
aF0.011765346233627114
aF0.041981033532940255
aF0.1399595328362327
aF0.03737172380702274
aF0.1567584521853171
aF0.07926145204249009
aF0.09336499617311637
aF0.05799928817000743
aF-0.003573072718965486
aF0.0036531104967477105
aF-0.0258922318420671
aF-0.2114552504124429
aF0.003356771962514669
aF-0.002731996532091202
aF0.23929124337659505
asI50
(lp52
F-0.1303209675469462
aF-0.06714470818373208
aF-0.16492185453382047
aF-0.031381498258398276
aF-0.14870848630165753
aF-0.035140418745984545
aF-0.003795296405261684
aF-0.0792953762401423
aF0.062450224172030736
aF-0.08871324034357791
aF-0.0290916161383932
aF-0.054252232520755166
aF0.0025905107052552547
aF-0.03761635206220501
aF0.005650907610313111
aF-0.01343668954753226
aF-0.003854248140117746
aF-0.028391685376599283
aF0.013959467429814524
aF-0.020765745907501378
aF0.0058100947791922646
aF-0.013024677140209306
aF0.012280241679652934
aF-0.06260975747921559
aF0.12046959361464513
aF-0.01925543755705443
aF0.009113010636598622
aF-0.002644335781110887
aF0.01604630345458398
aF-0.010805459911522321
aF0.024990627111706323
aF0.0011235429686961402
aF0.019783604213134492
aF0.01726101824695063
aF0.04610494814950892
aF0.002748834455847185
aF0.05443695516697009
aF0.06948431955561954
aF0.08312575314336478
aF-0.05995253628645954
aF0.07292879545718867
aF0.011016656335506048
aF0.041062351620384074
aF0.13957880535639566
aF0.0368697748891228
aF0.16015393142951406
aF0.08795661717948582
aF0.08939201459386126
aF0.05100924565023418
aF-0.003210965373950042
aF-0.0029369386052610423
aF-0.02804326378091894
aF-0.21087767703175572
aF-0.0009571969293113162
aF-0.002102937649572952
aF0.23907074933686015
asI51
(lp53
F-0.13312195584424075
aF-0.07288641773606312
aF-0.1674083235844098
aF-0.0318605037375863
aF-0.1521709256353305
aF-0.03160302544845864
aF-0.005898980898288139
aF-0.07909263451975711
aF0.0603927345424358
aF-0.08781403871379377
aF-0.02898803171272773
aF-0.05603950704160875
aF0.006157987115348379
aF-0.03836721793060668
aF0.013946321733485749
aF-0.01958133550377123
aF0.00290186959275328
aF-0.03040192084371181
aF0.010457740141765957
aF-0.018438797581464217
aF0.011132916543275102
aF-0.018054437193719162
aF0.011838560486792788
aF-0.0610448649006567
aF0.12388485646342809
aF-0.01031806666650456
aF0.012794200608221423
aF-0.005219484348828818
aF0.020265676029148912
aF-0.013028321551016723
aF0.025494955011159063
aF-0.00021689569765723224
aF0.02102874847971126
aF0.02536903746444048
aF0.04152283550818266
aF0.002563398046453857
aF0.05981579603368749
aF0.07177425813629527
aF0.08065849114557341
aF-0.058471886900791796
aF0.07599246896655
aF0.011866037130887703
aF0.04275805477595669
aF0.14066957357653967
aF0.03829759533449766
aF0.1629444086305568
aF0.08528061268420635
aF0.09404639204286265
aF0.05266550645952038
aF0.002006503616209992
aF-0.0042201667253277085
aF-0.031071239345332118
aF-0.21339369583873155
aF0.004095474590460053
aF-0.0028898016438031896
aF0.2398424524388816
asI52
(lp54
F-0.13308987682931003
aF-0.07000588475103799
aF-0.1655566950400303
aF-0.026894949258723468
aF-0.1498024638392947
aF-0.02921138272841678
aF-0.006569784428490579
aF-0.07789832900307431
aF0.059194009539011654
aF-0.08592246185504919
aF-0.026482581165590265
aF-0.05190148146552661
aF0.0033524816766283194
aF-0.04511518882452092
aF0.00982507506059114
aF-0.013665807739549299
aF0.0011669610941338847
aF-0.030417425739372752
aF0.00681567657152735
aF-0.018189074714693384
aF0.008386835105576569
aF-0.011521053864987803
aF0.009507881952519046
aF-0.06012962037367931
aF0.12142274912089092
aF-0.017758244273198845
aF0.011009972358015534
aF-0.005917500972985875
aF0.019201564368751978
aF-0.008058206366435821
aF0.02997727919985389
aF0.001603837757883362
aF0.013462117259754944
aF0.021626241569853443
aF0.04359713345462735
aF0.006346282698775318
aF0.060976009050814885
aF0.0687640685878937
aF0.08020497125118889
aF-0.05750603289310875
aF0.07461555483937221
aF0.012017042459407264
aF0.03724007268640759
aF0.14131883605338613
aF0.04110503610068187
aF0.1599474625005629
aF0.08018929209912973
aF0.08949325096315751
aF0.05814451832652302
aF-0.00337667368546723
aF0.00012345266017284008
aF-0.028684938599521495
aF-0.20919006073217306
aF0.0021118224229309045
aF-2.9453196141461597e-05
aF0.23739374372860494
asI53
(lp55
F-0.13248544431086473
aF-0.0720365449056909
aF-0.16491101476758963
aF-0.026934776341327227
aF-0.15172631137863724
aF-0.03670357119951497
aF-0.005394198518786196
aF-0.0745693604436525
aF0.05963162470563949
aF-0.0891929697533927
aF-0.030488648814811385
aF-0.05495578489109513
aF0.002696494352308495
aF-0.04296649283282788
aF0.006375614177752588
aF-0.01579685547964332
aF-0.0002724948036708451
aF-0.026820350982642665
aF0.014060621001260806
aF-0.024797540971575674
aF0.011162542283537774
aF-0.013484290921271973
aF0.009803017903336647
aF-0.05882580378042693
aF0.1254265503929364
aF-0.011733963559978236
aF0.012778520298882923
aF-0.005613858383382793
aF0.02238660682425041
aF-0.009770657478214715
aF0.02554105477240954
aF0.002593018961570288
aF0.01973413950360258
aF0.019337245629673216
aF0.04025304699416911
aF-0.0014606974112621165
aF0.05190561629222587
aF0.07180941614529002
aF0.0875077554819862
aF-0.05555720243515851
aF0.0776606780918629
aF0.007575145777746258
aF0.03743903651408472
aF0.14104154001201388
aF0.034503866879084834
aF0.1610865324239585
aF0.08173565286597705
aF0.09178529312691328
aF0.05455881521302917
aF-0.004209015081999284
aF0.0002722415303567413
aF-0.030138245473407217
aF-0.21217880396641312
aF0.0038996828016408806
aF0.002773095109571156
aF0.2384090444370841
asI54
(lp56
F-0.1327763503808598
aF-0.06825533368870416
aF-0.16929398049863406
aF-0.0280861262656873
aF-0.14953451448697494
aF-0.03453048494777017
aF-0.009608729075369216
aF-0.07439755403569276
aF0.0601262436094713
aF-0.08263255493632583
aF-0.03268683375535136
aF-0.05411135895114824
aF0.007001983491693462
aF-0.04110593987448173
aF0.011591839871711014
aF-0.01727273989237037
aF0.0013883625697727435
aF-0.024963833928589804
aF0.00816184619561329
aF-0.020015999832490566
aF0.007340773830436869
aF-0.012676468928205014
aF0.00982381561800027
aF-0.05975669905088007
aF0.12708596733024546
aF-0.010707015475284068
aF0.008397136858507726
aF-0.006771990436774386
aF0.02259612859440114
aF-0.004826978216246248
aF0.024331234690062292
aF0.003364767631100634
aF0.014213028448611536
aF0.019807996025098355
aF0.04460662125805787
aF-0.0022157835289615528
aF0.059502145713900896
aF0.07099477566808131
aF0.09014478729376775
aF-0.056932139235174734
aF0.07446399941093265
aF0.008035204742819923
aF0.036939594727406516
aF0.14374450801780572
aF0.03845126028527085
aF0.16013438807529803
aF0.08157982839254845
aF0.09204778111278099
aF0.059414935778369406
aF-0.0008737749416155524
aF-0.0024719680339090415
aF-0.03210409696102241
aF-0.21259349411582257
aF-0.0021714923683356785
aF-0.0024488518659166653
aF0.24157894241656772
asI55
(lp57
F-0.13101007305730344
aF-0.06940470464839162
aF-0.16781992988196837
aF-0.026494698309242597
aF-0.1472347971365846
aF-0.03180051555274651
aF-0.004994082886065804
aF-0.07821114360606603
aF0.06422634536210893
aF-0.0888528306711682
aF-0.02889276429700006
aF-0.053367310309782395
aF0.0031206442713533834
aF-0.04316771355318733
aF0.008123330050572749
aF-0.021467807269817032
aF-0.003819667212384546
aF-0.024590663028586205
aF0.007962373926598295
aF-0.01948208031106642
aF0.008239578600087677
aF-0.01669369430184972
aF0.013223729818771955
aF-0.06561224412880186
aF0.12477517538919781
aF-0.015745399159409493
aF0.008244990136454392
aF-0.007222572590254063
aF0.021311405153025927
aF-0.0057222289937606495
aF0.027414399824839352
aF0.00427991608070513
aF0.01635740911735121
aF0.02402591726685815
aF0.04815940208559277
aF0.0025086216896941208
aF0.060261053060207584
aF0.07283729796194059
aF0.086437441120954
aF-0.054127196594959626
aF0.07491923918706071
aF0.01413531405203135
aF0.044132298812587525
aF0.14225248421652295
aF0.03467169023082384
aF0.15736351735626516
aF0.08673917689333215
aF0.08896448652805475
aF0.055789330279921855
aF-0.0037468990032865058
aF-0.00017539041566774357
aF-0.03053309684321405
aF-0.2111417433987543
aF-0.00010380893841211469
aF0.001706464897267543
aF0.24217018190642647
asa(lp58
F0.009895455435617593
aF0.008062194646783418
aF0.008526191982235037
aF0.009395451642762367
aF0.009272083003150916
aF0.008400975285326497
aF0.009781350975470357
aF0.0022565323392840664
aF0.003930384982138841
aF0.005522040034356191
aF0.005820486016700413
aF0.003934306055649118
aF0.008646215177334835
aF0.006947794160572017
aF0.0024675787096612068
aF0.003992908621632681
aF0.006871262479852987
aF0.001867083199942444
aF0.0023010338060472607
aF0.006076137864364914
aF0.010006132187177132
aF0.0034273243033469286
aF0.0013226238304233575
aF0.0010977272214978742
aF0.007078471680037926
aF0.01012971778815618
aF0.006687431124096731
aF0.008935338806808597
aF0.009412893206623404
aF0.007240868259470263
aF0.00909045140137392
aF0.001434392314013755
aF0.0026291508669711206
aF0.008564074167649158
aF0.0030044422789227833
aF0.0011782068301574868
aF0.005875782603480919
aF0.00997480658500569
aF0.004127107581488703
aF0.008561762529990823
aF0.003120254804522913
aF0.007665724534559474
aF0.0021302543326437
aF0.009506288378957088
aF0.0036201373902155607
aF0.0016977496912709937
aF0.00845318298390699
aF0.009645109522170743
aF0.0007609510718142655
aF0.009905027505783882
aF0.0032439571657632074
aF0.004647423563287843
aF0.005000621976716058
aF0.0061798503657109595
aF0.006889985803469047
aF0.0026720953982130257
aa(lp59
F0.04515856592163785
aF0.03984965183639533
aF0.037666401467788116
aF0.04811647183766951
aF0.04175507241664175
aF0.035894084147709615
aF0.045713958790048775
aF0.03993796692355772
aF0.04606508427500343
aF0.03596303240198616
aF0.03552847664648849
aF0.03497057523788408
aF0.04428360455446795
aF0.038260357224870256
aF0.034967365588141536
aF0.04327294912968738
aF0.04356788706956545
aF0.041599773050110256
aF0.031881796667065865
aF0.039171574036803394
aF0.04604115274833062
aF0.043254483480291164
aF0.040229837729996484
aF0.046759713279979576
aF0.04384498836643644
aF0.04519226071567675
aF0.04190012532238756
aF0.04043452538737695
aF0.041548599347661655
aF0.03578674531869536
aF0.0488273516476667
aF0.03773960519854494
aF0.0471120281175703
aF0.046385090397726064
aF0.03985151561331779
aF0.034723697660397665
aF0.04310120150265767
aF0.040979787634873394
aF0.04045261075457704
aF0.04045020174690063
aF0.04260600158689508
aF0.03914174366572014
aF0.04341659376425003
aF0.037432913936554846
aF0.04566149840681542
aF0.04006864486558033
aF0.04372891225141491
aF0.03929066403786845
aF0.03666029381536931
aF0.039612691712108045
aF0.03485212103042472
aF0.04855515252956703
aF0.036387649108297324
aF0.044513900731882564
aF0.045075590403975505
aF0.039147838259699946
aaF5.202776883585125
a.